                    ram_start       = $8000

                    credits         = $8023
                    is_playing      = $8030
                    screen_state    = $8039 ; 10=ready, 40=go to gamble
                    cur_screen      = $803B ; 1=splash;6=game etc
                    score_lo        = $8044
                    score_mid       = $8045
                    score_hi        = $8046
                    hiscore_lo      = $804A
                    hiscore_mid     = $804B
                    hiscore_hi      = $804C

                    carrying_1      = $80A0 ; carrying food
                    carrying_2      = $80A1 ; carrying food
                    carrying_3      = $80A2 ; carrying food... dropped?
                    carry_x         = $80A5
                    carry_tile      = $80A6 ; what item player is carrying
                    carry_y         = $80A8

                    lives           = $8100
                    lives_copy      = $8200 ; seems to mimic 8100?

                    player_bytes    = $8400 ;
                    controls        = $8401 ; 1=L, 2=R, 4=D, 8=U, 10=fire
                    player_x        = $8406
                    player_y        = $8407
                    player_sp_x     = $8408 ; fe = -2 left, 02 = 2 right
                    player_sp_y     = $8409 ; fe = -2 up, 02 = 2 down

                    cat1_enable     = $8500 ; not sure why enable+active
                    cat1_active     = $8501 ;
                    cat2_enable     = $8504
                    cat2_active     = $8505
                    cat3_enable     = $8506
                    cat3_active     = $8507

                    cat1_bytes      = $8510 ; 29 bytes
                    cat1_x          = $8518
                    cat1_y          = $8519
                    cat1_fr         = $851A
                    cat1_dir        = $851B ; 1 = L, 2 = R, 4 = U, 5 = d
                    cat2_bytes      = $8550 ; 29 bytes: to 856D
                    cat2_x          = $8558
                    cat2_y          = $8559
                    cat2_fr         = $855A

                    cat3_bytes      = $8570 ; 29 bytes
                    cat3_x          = $8578
                    cat3_y          = $8579
                    cat3_fr         = $857A

                    snake1_enable   = $8600
                    snake1_active   = $8601
                    snake2_enable   = $8602
                    snake2_active   = $8603

                    snake1_bytes    = $8610 ; tee hee, snake bytes
                    snake1_x        = $8618
                    snake1_y        = $8619
                    snake1_fr       = $861A

                    snake2_bytes    = $8630
                    snake2_x        = $8638
                    snake2_y        = $8639
                    snake2_fr       = $863A

                    bombs           = $867f
                    bomb_placed     = $8680
                    bomb_x          = $8684
                    bomb_y          = $8685
                    bomb_um1        = $8686 ; anim frames or something
                    bomb_um2        = $8687
                    bomb_set_timer  = $868A
                    bomb_exploding  = $868B

                    stack_location  = $87FE

                    screen_ram      = $9000 ; - 0x93ff  videoram
                    start_of_tiles  = $9040 ; top right tile
                    END_OF_TILES    = $93BF ; bottom left tile
                    end_of_scr_ram  = $93ff

                    color_ram       = $9400
                    x_offset        = $9800
                    sprite_ram      = $9840

                    int_enable      = $b000 ; interrupt enable w, DIP read
                    dip_switch      = $b000 ; interrupt enable w, DIP read
                    coin_lockout    = $b002 ; dunno
                    sound_enable    = $b003
                    flip_scr_x      = $b006
                    flip_scr_y      = $b007
                    watchdog        = $B800 ;

                    hw_in_0         = $A000 ; 1 = L, 2 = R, 4 = down, 8 = up
                    hw_in_1         = $A800 ; 0x4 = P1, 0x8 = P2

                ;;; ============ constants ========

                    ;; cur_screen enum
                    SCR_NONE        = $00
                    SCR_SPLASH      = $01
                    SCR_PUSH_P1     = $02
                    SCR_PUSH_P1P2   = $03
                    SCR_GAME_OVER   = $04
                    SCR_READY       = $05
                    SCR_GAME        = $06
                    SCR_GAMBLE      = $07
                    SCR_LUCKY       = $08


                    TILE_BLANK      = $24
                    TILE_WATER      = $37
                    TILE_WATER_2    = $38

                ;;; ============ start of suprmous.x1 =============

0000          	start:
0000  00      	    nop
0001  00      	    nop
0002  00      	    nop
0003  3E00    	    ld   a,$00
0005  3200B0  	    ld   (int_enable),a
0008  C3F107  	    jp   init_game_RAM_test

000B  00      	    nop
000C  00      	    nop
000D  00      	    nop

                done_RAM_test:
000E  3A00B8  	    ld   a,(watchdog)
                _clear_ram:
0011  210080  	    ld   hl,ram_start
0014  3E88    	    ld   a,$88
0016  0E00    	    ld   c,$00
                __i01:
0018  71      	    ld   (hl),c
0019  23      	    inc  hl
001A  BC      	    cp   h
001B  C21800  	    jp   nz,__i01
001E  31FE87  	    ld   sp,stack_location
0021  3A00B8  	    ld   a,(watchdog)
0024  CD3309  	    call clear_screen
0027  AF      	    xor  a
0028  0608    	    ld   b,$08
002A  2100B0  	    ld   hl,dip_switch
002D  77      	    ld   (hl),a
002E  23      	    inc  hl
002F  10FC    	    djnz $002D
0031  3A00B0  	    ld   a,(dip_switch)
0034  322080  	    ld   ($8020),a
0037  47      	    ld   b,a
0038  E607    	    and  $07
003A  322580  	    ld   ($8025),a
003D  78      	    ld   a,b
003E  E618    	    and  $18
0040  322680  	    ld   ($8026),a
0043  78      	    ld   a,b
0044  E620    	    and  $20
0046  322880  	    ld   ($8028),a
0049  78      	    ld   a,b
004A  E640    	    and  $40
004C  322780  	    ld   ($8027),a
004F  C38005  	    jp   $0580

zeros               dc   20,0

                ;; Non-Maskable Interrupt handler. Fires every frame
NMI_LOOP        NMI_LOOP:
0066  F5      	    push af
0067  3E00    	    ld   a,$00
0069  3200B0  	    ld   (int_enable),a
006C  C5      	    push bc
006D  D5      	    push de
006E  E5      	    push hl
006F  08      	    ex   af,af'
0070  D9      	    exx
0071  F5      	    push af
0072  C5      	    push bc
0073  D5      	    push de
0074  E5      	    push hl
0075  DDE5    	    push ix
0077  FDE5    	    push iy
0079  00      	    nop
007A  00      	    nop
007B  3A00B8  	    ld   a,(watchdog)
007E  00      	    nop
007F  00      	    nop
0080  00      	    nop
0081  00      	    nop
0082  CD0001  	    call main_loop
0085  00      	    nop
0086  00      	    nop
0087  00      	    nop
0088  00      	    nop
0089  00      	    nop
008A  00      	    nop
008B  FDE1    	    pop  iy
008D  DDE1    	    pop  ix
008F  E1      	    pop  hl
0090  D1      	    pop  de
0091  C1      	    pop  bc
0092  F1      	    pop  af
0093  D9      	    exx
0094  08      	    ex   af,af'
0095  E1      	    pop  hl
0096  D1      	    pop  de
0097  C1      	    pop  bc
0098  3E01    	    ld   a,$01
009A  3200B0  	    ld   (int_enable),a
009D  F1      	    pop  af
009E  C9      	    ret

zeros               dc 97,0

                ;; dunno if it's main loop. called from NMI
                main_loop:
0100  00            nop
0101  00            nop
0102  00            nop
0103  CD4307  	    call $0743
0106  CD2906  	    call $0629
0109  3A3080  	    ld   a,(is_playing)
010C  A7      	    and  a
010D  C2EB01  	    jp   nz,_no_start_buttons
0110  3A00A8  	    ld   a,(hw_in_1)
0113  E608    	    and  $08    ; 2P plutton
0115  C22301  	    jp   nz,_check_2P
                _has_one_credit:
0118  3A00A8  	    ld   a,(hw_in_1) ; reload in_1. for some reason
011B  E604    	    and  $04    ; 1P button
011D  C25B01  	    jp   nz,start_game_p1
0120  C3EB01  	    jp   _no_start_buttons  ; no buttons
                _check_2P:
0123  3A2380  	    ld   a,(credits)
0126  FE02    	    cp   $02    ; has two?
0128  DA1801  	    jp   c,_has_one_credit
012B  3E02    	    ld   a,$02
012D  323080  	    ld   (is_playing),a
0130  3A2380  	    ld   a,(credits)
0133  D602    	    sub  $02
0135  27      	    daa
0136  322380  	    ld   (credits),a
0139  3E01    	    ld   a,$01
013B  323C80  	    ld   ($803C),a
013E  3A2680  	    ld   a,($8026)
0141  A7      	    and  a
0142  C25001  	    jp   nz,$0150
0145  3E03    	    ld   a,$03
0147  320082  	    ld   (lives_copy),a
014A  320083  	    ld   ($8300),a
014D  C39301  	    jp   start_game
0150  3E05    	    ld   a,$05
0152  320082  	    ld   (lives_copy),a
0155  320083  	    ld   ($8300),a
0158  C39301  	    jp   start_game

                start_game_p1:
015B  3A2380  	    ld   a,(credits)
015E  A7      	    and  a
015F  CAEB01  	    jp   z,_no_start_buttons
0162  3E01    	    ld   a,$01
0164  323080  	    ld   (is_playing),a
0167  3A2380  	    ld   a,(credits)
016A  D601    	    sub  $01
016C  27      	    daa
016D  322380  	    ld   (credits),a
0170  3E00    	    ld   a,$00
0172  323C80  	    ld   ($803C),a
0175  3A2680  	    ld   a,($8026)
0178  A7      	    and  a
0179  C28901  	    jp   nz,$0189
017C  3E03    	    ld   a,$03
017E  320082  	    ld   (lives_copy),a
0181  3E00    	    ld   a,$00
0183  320083  	    ld   ($8300),a
0186  C39301  	    jp   start_game
0189  3E05    	    ld   a,$05
018B  320082  	    ld   (lives_copy),a
018E  3E00    	    ld   a,$00
0190  320083  	    ld   ($8300),a

                start_game:
0193  3E00    	    ld   a,$00
0195  210081  	    ld   hl,lives
0198  0603    	    ld   b,$03
                __i02:
019A  77      	    ld   (hl),a
019B  2C      	    inc  l
019C  C29A01  	    jp   nz,__i02
019F  24      	    inc  h
01A0  2C      	    inc  l
01A1  10F7    	    djnz __i02
01A3  3E00    	    ld   a,$00
01A5  323180  	    ld   ($8031),a
01A8  323280  	    ld   ($8032),a
01AB  323380  	    ld   ($8033),a
01AE  323480  	    ld   ($8034),a
01B1  323580  	    ld   ($8035),a
01B4  323680  	    ld   ($8036),a
01B7  323A80  	    ld   ($803A),a
01BA  3EF0    	    ld   a,$F0
01BC  323D80  	    ld   ($803D),a
01BF  214080  	    ld   hl,$8040
01C2  3E00    	    ld   a,$00
01C4  060A    	    ld   b,$0A
01C6  77      	    ld   (hl),a
01C7  23      	    inc  hl
01C8  10FC    	    djnz $01C6
01CA  00      	    nop
01CB  0601    	    ld   b,$01
01CD  CDBC07  	    call $07BC
01D0  3E01    	    ld   a,$01
01D2  3203B0  	    ld   (sound_enable),a
01D5  3EE0    	    ld   a,$E0
01D7  3200B8  	    ld   (watchdog),a
01DA  3E01    	    ld   a,$01
01DC  323880  	    ld   ($8038),a
01DF  3A3980  	    ld   a,(screen_state)
01E2  CBE7    	    set  4,a
01E4  323980  	    ld   (screen_state),a
01E7  00      	    nop
01E8  00      	    nop
01E9  00      	    nop
01EA  00      	    nop

    ;; ....
                _no_start_buttons:
01EB  3A3980  	    ld   a,(screen_state)
01EE  A7      	    and  a
01EF  C0      	    ret  nz
01F0  3A3080  	    ld   a,(is_playing)
01F3  A7      	    and  a
01F4  C2C702  	    jp   nz,game_in_progress
01F7  3A2380  	    ld   a,(credits)
01FA  A7      	    and  a
01FB  C20802  	    jp   nz,show_credits_screen
01FE  3A3B80  	    ld   a,(cur_screen)
0201  A7      	    and  a
0202  C24202  	    jp   nz,$0242
0205  C38802  	    jp   $0288
                show_credits_screen:
0208  FE02    	    cp   $02
020A  D21B02  	    jp   nc,$021B
                _press_p1:
020D  3A3B80  	    ld   a,(cur_screen)
0210  FE02    	    cp   SCR_PUSH_P1
0212  C8      	    ret  z
0213  3E01    	    ld   a,$01
0215  323980  	    ld   (screen_state),a
0218  C32902  	    jp   _press_either
                _press_p2:
021B  3A3B80  	    ld   a,(cur_screen)
021E  FE03    	    cp   SCR_PUSH_P1P2
0220  C8      	    ret  z
0221  3E02    	    ld   a,$02
0223  323980  	    ld   (screen_state),a
0226  C32902  	    jp   _press_either
                _press_either:
0229  210081  	    ld   hl,lives
022C  3E00    	    ld   a,$00
022E  0603    	    ld   b,$03
0230  77      	    ld   (hl),a
0231  2C      	    inc  l
0232  C23002  	    jp   nz,$0230
0235  24      	    inc  h
0236  10F8    	    djnz $0230
0238  216880  	    ld   hl,$8068
023B  0606    	    ld   b,$06
023D  77      	    ld   (hl),a
023E  23      	    inc  hl
023F  10FC    	    djnz $023D
0241  C9      	    ret

0242  3A3380  	    ld   a,($8033)
0245  A7      	    and  a
0246  CA5E02  	    jp   z,$025E
0249  3A3B80  	    ld   a,(cur_screen)
024C  FE01    	    cp   SCR_SPLASH
024E  CA7502  	    jp   z,$0275
0251  FE06    	    cp   SCR_GAME
0253  CA9902  	    jp   z,$0299
0256  FE07    	    cp   SCR_GAMBLE
0258  CA8802  	    jp   z,$0288
025B  C38802  	    jp   $0288
025E  3A3280  	    ld   a,($8032)
0261  A7      	    and  a
0262  CAAA02  	    jp   z,$02AA
0265  3A3B80  	    ld   a,(cur_screen)
0268  FE06    	    cp   SCR_GAME
026A  CA9902  	    jp   z,$0299
026D  FE07    	    cp   SCR_GAMBLE
026F  CA8802  	    jp   z,$0288
0272  C38802  	    jp   $0288
0275  3E00    	    ld   a,$00
0277  323380  	    ld   ($8033),a
027A  323280  	    ld   ($8032),a
027D  3A3980  	    ld   a,(screen_state)
0280  CBEF    	    set  5,a
0282  323980  	    ld   (screen_state),a
0285  C32902  	    jp   $0229
0288  3E00    	    ld   a,$00
028A  323380  	    ld   ($8033),a
028D  323280  	    ld   ($8032),a
0290  3A3980  	    ld   a,(screen_state)
0293  CBFF    	    set  7,a
0295  323980  	    ld   (screen_state),a
0298  C9      	    ret
0299  3E00    	    ld   a,$00
029B  323380  	    ld   ($8033),a
029E  323280  	    ld   ($8032),a
02A1  3A3980  	    ld   a,(screen_state)
02A4  CBF7    	    set  6,a
02A6  323980  	    ld   (screen_state),a
02A9  C9      	    ret
02AA  3A3B80  	    ld   a,(cur_screen)
02AD  FE01    	    cp   SCR_SPLASH
02AF  CA9446  	    jp   z,$4694
02B2  FE06    	    cp   SCR_GAME
02B4  CABF02  	    jp   z,$02BF
02B7  FE07    	    cp   SCR_GAMBLE
02B9  CAC302  	    jp   z,$02C3
02BC  C38802  	    jp   $0288
02BF  CD9123  	    call $2391
02C2  C9      	    ret
02C3  CD6824  	    call $2468
02C6  C9      	    ret
                game_in_progress:
02C7  CD3806  	    call $0638
02CA  3A3380  	    ld   a,($8033)
02CD  A7      	    and  a
02CE  C29803  	    jp   nz,$0398
02D1  3A3280  	    ld   a,($8032)
02D4  A7      	    and  a
02D5  C2E004  	    jp   nz,$04E0
02D8  3A3B80  	    ld   a,(cur_screen)
02DB  FE04    	    cp   SCR_GAME_OVER
02DD  CAF502  	    jp   z,_scr_game_over_2
02E0  FE05    	    cp   SCR_READY
02E2  CA6D03  	    jp   z,$036D
02E5  FE06    	    cp   SCR_GAME
02E7  CA9123  	    jp   z,$2391
02EA  FE07    	    cp   SCR_GAMBLE
02EC  CA6824  	    jp   z,$2468
02EF  FE08    	    cp   SCR_LUCKY
02F1  CA5645  	    jp   z,$4556
02F4  C9      	    ret

                _scr_game_over_2:
02F5  3A3D80  	    ld   a,($803D)
02F8  3D      	    dec  a
02F9  323D80  	    ld   ($803D),a
02FC  FE7E    	    cp   $7E
02FE  C20803  	    jp   nz,$0308
0301  08      	    ex   af,af'
0302  3EA0    	    ld   a,$A0
0304  3200B8  	    ld   (watchdog),a
0307  08      	    ex   af,af'
0308  FE77    	    cp   $77
030A  C21403  	    jp   nz,$0314
030D  08      	    ex   af,af'
030E  3EE0    	    ld   a,$E0
0310  3200B8  	    ld   (watchdog),a
0313  08      	    ex   af,af'
0314  A7      	    and  a
0315  CA1903  	    jp   z,$0319
0318  C9      	    ret
0319  3A3080  	    ld   a,(is_playing)
031C  FE02    	    cp   $02
031E  CA3203  	    jp   z,$0332
0321  3E00    	    ld   a,$00
0323  323080  	    ld   (is_playing),a
0326  323B80  	    ld   (cur_screen),a ; SCR_NONE
0329  3A3980  	    ld   a,(screen_state)
032C  CBD7    	    set  2,a
032E  323980  	    ld   (screen_state),a
0331  C9      	    ret
0332  3A3180  	    ld   a,($8031)
0335  A7      	    and  a
0336  C25303  	    jp   nz,$0353
0339  3E01    	    ld   a,$01
033B  323480  	    ld   ($8034),a
033E  3A3580  	    ld   a,($8035)
0341  A7      	    and  a
0342  C22103  	    jp   nz,$0321
0345  3E01    	    ld   a,$01
0347  323180  	    ld   ($8031),a
034A  3A3980  	    ld   a,(screen_state)
034D  CBE7    	    set  4,a
034F  323980  	    ld   (screen_state),a
0352  C9      	    ret
0353  3E01    	    ld   a,$01
0355  323580  	    ld   ($8035),a
0358  3A3480  	    ld   a,($8034)
035B  A7      	    and  a
035C  C22103  	    jp   nz,$0321
035F  3E00    	    ld   a,$00
0361  323180  	    ld   ($8031),a
0364  3A3980  	    ld   a,(screen_state)
0367  CBE7    	    set  4,a
0369  323980  	    ld   (screen_state),a
036C  C9      	    ret
036D  3A3D80  	    ld   a,($803D)
0370  3D      	    dec  a
0371  323D80  	    ld   ($803D),a
0374  FE3E    	    cp   $3E
0376  CA8303  	    jp   z,$0383
0379  FE37    	    cp   $37
037B  CA8903  	    jp   z,$0389
037E  A7      	    and  a
037F  CA8F03  	    jp   z,$038F
0382  C9      	    ret
0383  3EA0    	    ld   a,$A0
0385  3200B8  	    ld   (watchdog),a
0388  C9      	    ret
0389  3EE0    	    ld   a,$E0
038B  3200B8  	    ld   (watchdog),a
038E  C9      	    ret
038F  3A3980  	    ld   a,(screen_state)
0392  CBEF    	    set  5,a
0394  323980  	    ld   (screen_state),a
0397  C9      	    ret

0398  3A3B80  	    ld   a,(cur_screen)
039B  FE06    	    cp   SCR_GAME
039D  CAB503  	    jp   z,_scr_game_1
03A0  FE07    	    cp   SCR_GAMBLE
03A2  CAAB03  	    jp   z,_scr_gamble_1
03A5  FE08    	    cp   SCR_LUCKY
03A7  CAAB03  	    jp   z,_scr_gamble_1
03AA  C9      	    ret
                _scr_gamble_1:
03AB  3A3180  	    ld   a,($8031)
03AE  A7      	    and  a
03AF  CAC104  	    jp   z,$04C1
03B2  C38B04  	    jp   $048B
                _scr_game_1:
03B5  3A3C80  	    ld   a,($803C)
03B8  A7      	    and  a
03B9  C21D04  	    jp   nz,$041D
03BC  210081  	    ld   hl,lives
03BF  3E00    	    ld   a,$00
03C1  BE      	    cp   (hl)
03C2  CAE903  	    jp   z,$03E9
03C5  35      	    dec  (hl)
03C6  210081  	    ld   hl,lives
03C9  110082  	    ld   de,lives_copy
03CC  01FF00  	    ld   bc,$00FF
03CF  EDB0    	    ldir
03D1  3A0081  	    ld   a,(lives)
03D4  A7      	    and  a
03D5  CAE903  	    jp   z,$03E9
03D8  3E00    	    ld   a,$00
03DA  323380  	    ld   ($8033),a
03DD  323280  	    ld   ($8032),a
03E0  3A3980  	    ld   a,(screen_state)
03E3  CBE7    	    set  4,a
03E5  323980  	    ld   (screen_state),a
03E8  C9      	    ret

                ;;
03E9  3203B0  	    ld   (sound_enable),a
03EC  3206B0  	    ld   (flip_scr_x),a
03EF  3207B0  	    ld   (flip_scr_y),a
03F2  3E01    	    ld   a,$01
03F4  323480  	    ld   ($8034),a
03F7  323580  	    ld   ($8035),a
03FA  210081  	    ld   hl,lives
03FD  0684    	    ld   b,$84
03FF  3E00    	    ld   a,$00
0401  77      	    ld   (hl),a
0402  2C      	    inc  l
0403  C20104  	    jp   nz,$0401
0406  24      	    inc  h
0407  78      	    ld   a,b
0408  BC      	    cp   h
0409  C2FF03  	    jp   nz,$03FF
040C  3E00    	    ld   a,$00
040E  323380  	    ld   ($8033),a
0411  323280  	    ld   ($8032),a
0414  3A3980  	    ld   a,(screen_state)
0417  CBDF    	    set  3,a
0419  323980  	    ld   (screen_state),a
041C  C9      	    ret
041D  210081  	    ld   hl,lives
0420  3E00    	    ld   a,$00
0422  BE      	    cp   (hl)
0423  CA2704  	    jp   z,$0427
0426  35      	    dec  (hl)
0427  3A3180  	    ld   a,($8031)
042A  A7      	    and  a
042B  CA3C04  	    jp   z,$043C
042E  210081  	    ld   hl,lives
0431  110083  	    ld   de,$8300
0434  01FF00  	    ld   bc,$00FF
0437  EDB0    	    ldir
0439  C34704  	    jp   $0447
043C  210081  	    ld   hl,lives
043F  110082  	    ld   de,lives_copy
0442  01FF00  	    ld   bc,$00FF
0445  EDB0    	    ldir
0447  3A0081  	    ld   a,(lives)
044A  A7      	    and  a
044B  C27304  	    jp   nz,$0473
044E  3A3180  	    ld   a,($8031)
0451  A7      	    and  a
0452  CA5D04  	    jp   z,$045D
0455  3E01    	    ld   a,$01
0457  323580  	    ld   ($8035),a
045A  C36204  	    jp   $0462
045D  3E01    	    ld   a,$01
045F  323480  	    ld   ($8034),a
0462  3E00    	    ld   a,$00
0464  323380  	    ld   ($8033),a
0467  323280  	    ld   ($8032),a
046A  3A3980  	    ld   a,(screen_state)
046D  CBDF    	    set  3,a
046F  323980  	    ld   (screen_state),a
0472  C9      	    ret
0473  3A3180  	    ld   a,($8031)
0476  A7      	    and  a
0477  CA8404  	    jp   z,$0484
047A  3A0082  	    ld   a,(lives_copy)
047D  A7      	    and  a
047E  C2C104  	    jp   nz,$04C1
0481  C38B04  	    jp   $048B
0484  3A0083  	    ld   a,($8300)
0487  A7      	    and  a
0488  CAC104  	    jp   z,$04C1
048B  3A2780  	    ld   a,($8027)
048E  A7      	    and  a
048F  C2A004  	    jp   nz,$04A0
0492  3E00    	    ld   a,$00
0494  323680  	    ld   ($8036),a
0497  3206B0  	    ld   (flip_scr_x),a
049A  3207B0  	    ld   (flip_scr_y),a
049D  C3AB04  	    jp   $04AB
04A0  3E01    	    ld   a,$01
04A2  323680  	    ld   ($8036),a
04A5  3206B0  	    ld   (flip_scr_x),a
04A8  3207B0  	    ld   (flip_scr_y),a
04AB  3E00    	    ld   a,$00
04AD  323380  	    ld   ($8033),a
04B0  323280  	    ld   ($8032),a
04B3  3E01    	    ld   a,$01
04B5  323180  	    ld   ($8031),a
04B8  3A3980  	    ld   a,(screen_state)
04BB  CBE7    	    set  4,a
04BD  323980  	    ld   (screen_state),a
04C0  C9      	    ret
04C1  3E00    	    ld   a,$00
04C3  323380  	    ld   ($8033),a
04C6  323280  	    ld   ($8032),a
04C9  3E00    	    ld   a,$00
04CB  323680  	    ld   ($8036),a
04CE  3206B0  	    ld   (flip_scr_x),a
04D1  3207B0  	    ld   (flip_scr_y),a
04D4  323180  	    ld   ($8031),a
04D7  3A3980  	    ld   a,(screen_state)
04DA  CBE7    	    set  4,a
04DC  323980  	    ld   (screen_state),a
04DF  C9      	    ret
04E0  3A3B80  	    ld   a,(cur_screen)
04E3  FE06    	    cp   $06
04E5  CA0405  	    jp   z,$0504
04E8  FE07    	    cp   $07
04EA  CAEE04  	    jp   z,$04EE
04ED  C9      	    ret
04EE  3E00    	    ld   a,$00
04F0  323280  	    ld   ($8032),a
04F3  323380  	    ld   ($8033),a
04F6  3E08    	    ld   a,$08
04F8  323B80  	    ld   (cur_screen),a
04FB  3A3980  	    ld   a,(screen_state)
04FE  CBD7    	    set  2,a
0500  323980  	    ld   (screen_state),a
0503  C9      	    ret
0504  3A0181  	    ld   a,($8101)
0507  C601    	    add  a,$01
0509  27      	    daa
050A  320181  	    ld   ($8101),a
050D  210381  	    ld   hl,$8103
0510  3E00    	    ld   a,$00
0512  06FC    	    ld   b,$FC
0514  77      	    ld   (hl),a
0515  2C      	    inc  l
0516  10FC    	    djnz $0514
0518  3A3180  	    ld   a,($8031)
051B  A7      	    and  a
051C  CA2D05  	    jp   z,$052D
051F  210081  	    ld   hl,lives
0522  110083  	    ld   de,$8300
0525  01FF00  	    ld   bc,$00FF
0528  EDB0    	    ldir
052A  C33805  	    jp   $0538
052D  210081  	    ld   hl,lives
0530  110082  	    ld   de,lives_copy
0533  01FF00  	    ld   bc,$00FF
0536  EDB0    	    ldir
0538  3E00    	    ld   a,$00
053A  323280  	    ld   ($8032),a
053D  323380  	    ld   ($8033),a
0540  3A3980  	    ld   a,(screen_state)
0543  CBF7    	    set  6,a
0545  323980  	    ld   (screen_state),a
0548  C9      	    ret

zeros               dc   55,0

0580  CDC005  	    call $05C0
0583  CDE205  	    call $05E2
0586  3A00B8  	    ld   a,(watchdog)
0589  00      	    nop
058A  00      	    nop
058B  00      	    nop
058C  3E01    	    ld   a,$01
058E  3200B0  	    ld   (int_enable),a
0591  3202B0  	    ld   (coin_lockout),a
0594  00      	    nop
0595  00      	    nop
0596  00      	    nop
0597  C3D11F  	    jp   $1FD1

                    dc   38,0

05C0  218093  	    ld   hl,$9380
05C3  11FA05  	    ld   de,$05FA
05C6  061A    	    ld   b,$1A
05C8  CD1D06  	    call $061D
05CB  215F91  	    ld   hl,$915F
05CE  111406  	    ld   de,$0614
05D1  0609    	    ld   b,$09
05D3  CD1D06  	    call $061D
05D6  3E00    	    ld   a,$00
05D8  32C192  	    ld   ($92C1),a
05DB  326190  	    ld   ($9061),a
05DE  328191  	    ld   ($9181),a
05E1  C9      	    ret

05E2  210194  	    ld   hl,$9401
05E5  112000  	    ld   de,$0020
05E8  0620    	    ld   b,$20
05EA  3E82    	    ld   a,$82
05EC  77      	    ld   (hl),a
05ED  19      	    add  hl,de
05EE  10FC    	    djnz $05EC
05F0  211F94  	    ld   hl,$941F
05F3  0610    	    ld   b,$10
05F5  77      	    ld   (hl),a
05F6  19      	    add  hl,de
05F7  10FC    	    djnz $05F5
05F9  C9      	    ret

05FA  1C      	    inc  e
05FB  0C      	    inc  c
05FC  181B    	    jr   $0619
05FE  0E2E    	    ld   c,$2E
0600  012424  	    ld   bc,$2424
0603  11122E  	    ld   de,$2E12
0606  1C      	    inc  e
0607  0C      	    inc  c
0608  181B    	    jr   $0625
060A  0E24    	    ld   c,$24
060C  24      	    inc  h
060D  1C      	    inc  e
060E  0C      	    inc  c
060F  181B    	    jr   $062C
0611  0E2E    	    ld   c,$2E
0613  02      	    ld   (bc),a
0614  0C      	    inc  c
0615  1B      	    dec  de
0616  0E0D    	    ld   c,$0D
0618  12      	    ld   (de),a
0619  1D      	    dec  e
061A  2E00    	    ld   l,$00
061C  24      	    inc  h

061D  1A      	    ld   a,(de)
061E  77      	    ld   (hl),a
061F  D5      	    push de
0620  11E0FF  	    ld   de,$FFE0
0623  19      	    add  hl,de
0624  D1      	    pop  de
0625  13      	    inc  de
0626  10F5    	    djnz $061D
0628  C9      	    ret


0629  00      	    nop
062A  00      	    nop
062B  00      	    nop
062C  210080  	    ld   hl,ram_start
062F  114098  	    ld   de,$9840
0632  012000  	    ld   bc,$0020
0635  EDB0    	    ldir
0637  C9      	    ret

0638  00      	    nop
0639  00      	    nop
063A  00      	    nop
063B  3A4080  	    ld   a,($8040)
063E  A7      	    and  a
063F  C8      	    ret  z
0640  AF      	    xor  a
0641  324080  	    ld   ($8040),a
0644  3A3180  	    ld   a,($8031)
0647  A7      	    and  a
0648  C25306  	    jp   nz,$0653
064B  214480  	    ld   hl,score_lo
064E  0E00    	    ld   c,$00
0650  C35806  	    jp   $0658
0653  214780  	    ld   hl,$8047
0656  0E01    	    ld   c,$01
0658  114180  	    ld   de,$8041
065B  0603    	    ld   b,$03
065D  AF      	    xor  a
065E  1A      	    ld   a,(de)
065F  8E      	    adc  a,(hl)
0660  27      	    daa
0661  77      	    ld   (hl),a
0662  13      	    inc  de
0663  23      	    inc  hl
0664  10F8    	    djnz $065E
0666  C5      	    push bc
0667  D5      	    push de
0668  3A0281  	    ld   a,($8102)
066B  A7      	    and  a
066C  C28A06  	    jp   nz,$068A
066F  3A2880  	    ld   a,($8028)
0672  A7      	    and  a
0673  C28006  	    jp   nz,$0680
0676  2B      	    dec  hl
0677  7E      	    ld   a,(hl)
0678  FE01    	    cp   $01
067A  DABD06  	    jp   c,$06BD
067D  C3AA06  	    jp   $06AA
0680  2B      	    dec  hl
0681  7E      	    ld   a,(hl)
0682  FE02    	    cp   $02
0684  DABD06  	    jp   c,$06BD
0687  C3AA06  	    jp   $06AA
068A  FE01    	    cp   $01
068C  C2BD06  	    jp   nz,$06BD
068F  3A2880  	    ld   a,($8028)
0692  A7      	    and  a
0693  C2A006  	    jp   nz,$06A0
0696  2B      	    dec  hl
0697  7E      	    ld   a,(hl)
0698  FE05    	    cp   $05
069A  DABD06  	    jp   c,$06BD
069D  C3AA06  	    jp   $06AA
06A0  2B      	    dec  hl
06A1  7E      	    ld   a,(hl)
06A2  FE10    	    cp   $10
06A4  DABD06  	    jp   c,$06BD
06A7  C3AA06  	    jp   $06AA
06AA  3A0081  	    ld   a,(lives)
06AD  C601    	    add  a,$01
06AF  320081  	    ld   (lives),a
06B2  3A0281  	    ld   a,($8102)
06B5  C601    	    add  a,$01
06B7  320281  	    ld   ($8102),a
06BA  CD2E23  	    call $232E
06BD  D1      	    pop  de
06BE  C1      	    pop  bc
06BF  1B      	    dec  de
06C0  3E00    	    ld   a,$00
06C2  12      	    ld   (de),a
06C3  1B      	    dec  de
06C4  12      	    ld   (de),a
06C5  1B      	    dec  de
06C6  12      	    ld   (de),a
06C7  00      	    nop
06C8  C3EF06  	    jp   $06EF
06CB  61      	    ld   h,c
06CC  93      	    sub  e
06CD  41      	    ld   b,c
06CE  93      	    sub  e
06CF  219301  	    ld   hl,start_game
06D2  93      	    sub  e
06D3  E1      	    pop  hl
06D4  92      	    sub  d
06D5  C1      	    pop  bc
06D6  92      	    sub  d
06D7  0191E1  	    ld   bc,$E191
06DA  90      	    sub  b
06DB  C1      	    pop  bc
06DC  90      	    sub  b
06DD  A1      	    and  c
06DE  90      	    sub  b
06DF  81      	    add  a,c
06E0  90      	    sub  b
06E1  61      	    ld   h,c
06E2  90      	    sub  b
06E3  219201  	    ld   hl,$0192
06E6  92      	    sub  d
06E7  E1      	    pop  hl
06E8  91      	    sub  c
06E9  C1      	    pop  bc
06EA  91      	    sub  c
06EB  A1      	    and  c
06EC  91      	    sub  c
06ED  81      	    add  a,c
06EE  91      	    sub  c
06EF  79      	    ld   a,c
06F0  A7      	    and  a
06F1  C2FF06  	    jp   nz,$06FF
06F4  DD214680	    ld   ix,score_hi
06F8  21CB06  	    ld   hl,$06CB
06FB  CD0A07  	    call $070A
06FE  C9      	    ret
06FF  DD214980	    ld   ix,$8049
0703  21D706  	    ld   hl,$06D7
0706  CD0A07  	    call $070A
0709  C9      	    ret
070A  0603    	    ld   b,$03
070C  08      	    ex   af,af'
070D  3E06    	    ld   a,$06
070F  08      	    ex   af,af'
0710  DD7E00  	    ld   a,(ix+$00)
0713  4F      	    ld   c,a
0714  0F      	    rrca
0715  0F      	    rrca
0716  0F      	    rrca
0717  0F      	    rrca
0718  CD2407  	    call $0724
071B  79      	    ld   a,c
071C  CD2407  	    call $0724
071F  DD2B    	    dec  ix
0721  10ED    	    djnz $0710
0723  C9      	    ret
0724  5E      	    ld   e,(hl)
0725  23      	    inc  hl
0726  56      	    ld   d,(hl)
0727  23      	    inc  hl
0728  E60F    	    and  $0F
072A  A7      	    and  a
072B  CA3407  	    jp   z,$0734
072E  12      	    ld   (de),a
072F  08      	    ex   af,af'
0730  3E01    	    ld   a,$01
0732  08      	    ex   af,af'
0733  C9      	    ret
0734  08      	    ex   af,af'
0735  FE01    	    cp   $01
0737  C23D07  	    jp   nz,$073D
073A  08      	    ex   af,af'
073B  12      	    ld   (de),a
073C  C9      	    ret
073D  3D      	    dec  a
073E  08      	    ex   af,af'
073F  3E24    	    ld   a,$24
0741  12      	    ld   (de),a
0742  C9      	    ret


0743  FD212080	    ld   iy,$8020
0747  3A00A8  	    ld   a,(hw_in_1)
074A  FD7701  	    ld   (iy+$01),a
074D  4F      	    ld   c,a
074E  0600    	    ld   b,$00
0750  E601    	    and  $01
0752  CA5B07  	    jp   z,$075B
0755  FD7709  	    ld   (iy+$09),a
0758  C39607  	    jp   $0796
075B  FD7E09  	    ld   a,(iy+$09)
075E  A7      	    and  a
075F  CA9607  	    jp   z,$0796
0762  FD360900	    ld   (iy+$09),$00
0766  FD7E05  	    ld   a,(iy+$05)
0769  07      	    rlca
076A  5F      	    ld   e,a
076B  1600    	    ld   d,$00
076D  DD21D507	    ld   ix,$07D5
0771  DD19    	    add  ix,de
0773  DD7E00  	    ld   a,(ix+$00)
0776  FD3404  	    inc  (iy+$04)
0779  FDBE04  	    cp   (iy+$04)
077C  C29607  	    jp   nz,$0796
077F  FD360400	    ld   (iy+$04),$00
0783  DD7E01  	    ld   a,(ix+$01)
0786  04      	    inc  b
0787  FD8603  	    add  a,(iy+$03)
078A  27      	    daa
078B  FE09    	    cp   $09
078D  CAE507  	    jp   z,$07E5
0790  D2E507  	    jp   nc,$07E5
0793  FD7703  	    ld   (iy+$03),a
0796  79      	    ld   a,c
0797  E602    	    and  $02
0799  CAA207  	    jp   z,$07A2
079C  FD770A  	    ld   (iy+$0a),a
079F  C3BC07  	    jp   $07BC
07A2  FD7E0A  	    ld   a,(iy+$0a)
07A5  A7      	    and  a
07A6  CABC07  	    jp   z,$07BC
07A9  AF      	    xor  a
07AA  FD770A  	    ld   (iy+$0a),a
07AD  FD7E03  	    ld   a,(iy+$03)
07B0  FE09    	    cp   $09
07B2  D2E507  	    jp   nc,$07E5
07B5  04      	    inc  b
07B6  C601    	    add  a,$01
07B8  27      	    daa
07B9  FD7703  	    ld   (iy+$03),a
07BC  78      	    ld   a,b
07BD  A7      	    and  a
07BE  C8      	    ret  z
07BF  3A2380  	    ld   a,(credits)
07C2  47      	    ld   b,a
07C3  E60F    	    and  $0F
07C5  327F90  	    ld   ($907F),a
07C8  78      	    ld   a,b
07C9  0F      	    rrca
07CA  0F      	    rrca
07CB  0F      	    rrca
07CC  0F      	    rrca
07CD  E60F    	    and  $0F
07CF  3E24    	    ld   a,$24
07D1  325F90  	    ld   ($905F),a
07D4  C9      	    ret
07D5  02      	    ld   (bc),a
07D6  010101  	    ld   bc,$0101
07D9  010201  	    ld   bc,$0102
07DC  03      	    inc  bc
07DD  010401  	    ld   bc,$0104
07E0  05      	    dec  b
07E1  010601  	    ld   bc,$0106
07E4  07      	    rlca
07E5  FD360309	    ld   (iy+$03),$09
07E9  AF      	    xor  a
07EA  3202B0  	    ld   (coin_lockout),a
07ED  04      	    inc  b
07EE  C3BC07  	    jp   $07BC

                init_game_RAM_test:      ; RAM test
07F1  3A00B8  	    ld   a,(watchdog)
07F4  210090  	    ld   hl,screen_ram
07F7  0604    	    ld   b,$04
07F9  3E24    	    ld   a,$24
07FB  77      	    ld   (hl),a
07FC  2C      	    inc  l
07FD  C2FB07  	    jp   nz,$07FB
0800  3A00B8  	    ld   a,(watchdog)
0803  24      	    inc  h
0804  10F3    	    djnz $07F9
0806  210094  	    ld   hl,$9400
0809  0604    	    ld   b,$04
080B  3E80    	    ld   a,$80
080D  77      	    ld   (hl),a
080E  2C      	    inc  l
080F  C20D08  	    jp   nz,$080D
0812  3A00B8  	    ld   a,(watchdog)
0815  24      	    inc  h
0816  10F3    	    djnz $080B
0818  210098  	    ld   hl,x_offset
081B  3600    	    ld   (hl),$00
081D  2C      	    inc  l
081E  C21B08  	    jp   nz,$081B
0821  2100B0  	    ld   hl,dip_switch
0824  0608    	    ld   b,$08
0826  3600    	    ld   (hl),$00
0828  2C      	    inc  l
0829  10FB    	    djnz $0826
082B  3A00B8  	    ld   a,(watchdog)
082E  1600    	    ld   d,$00
0830  0E20    	    ld   c,$20
0832  210080  	    ld   hl,ram_start
0835  0608    	    ld   b,$08
0837  79      	    ld   a,c
0838  C62F    	    add  a,$2F
083A  77      	    ld   (hl),a
083B  2C      	    inc  l
083C  20FA    	    jr   nz,$0838
083E  3C      	    inc  a
083F  24      	    inc  h
0840  10F6    	    djnz $0838
0842  210080  	    ld   hl,ram_start
0845  0608    	    ld   b,$08
0847  3A00B8  	    ld   a,(watchdog)
084A  79      	    ld   a,c
084B  C62F    	    add  a,$2F
084D  BE      	    cp   (hl)
084E  C2DD08  	    jp   nz,$08DD
0851  2C      	    inc  l
0852  20F7    	    jr   nz,$084B
0854  3C      	    inc  a
0855  24      	    inc  h
0856  10F3    	    djnz $084B
0858  3A00B8  	    ld   a,(watchdog)
085B  0D      	    dec  c
085C  20D4    	    jr   nz,$0832
085E  14      	    inc  d
085F  0E20    	    ld   c,$20
0861  210090  	    ld   hl,screen_ram
0864  0604    	    ld   b,$04
0866  79      	    ld   a,c
0867  C62F    	    add  a,$2F
0869  77      	    ld   (hl),a
086A  2C      	    inc  l
086B  20FA    	    jr   nz,$0867
086D  3C      	    inc  a
086E  24      	    inc  h
086F  10F6    	    djnz $0867
0871  3A00B8  	    ld   a,(watchdog)
0874  210090  	    ld   hl,screen_ram
0877  0604    	    ld   b,$04
0879  79      	    ld   a,c
087A  C62F    	    add  a,$2F
087C  BE      	    cp   (hl)
087D  C2DD08  	    jp   nz,$08DD
0880  2C      	    inc  l
0881  20F7    	    jr   nz,$087A
0883  3C      	    inc  a
0884  24      	    inc  h
0885  10F3    	    djnz $087A
0887  3A00B8  	    ld   a,(watchdog)
088A  0D      	    dec  c
088B  20D4    	    jr   nz,$0861
088D  14      	    inc  d
088E  0E20    	    ld   c,$20
0890  210094  	    ld   hl,$9400
0893  0604    	    ld   b,$04
0895  79      	    ld   a,c
0896  C62F    	    add  a,$2F
0898  77      	    ld   (hl),a
0899  2C      	    inc  l
089A  20FA    	    jr   nz,$0896
089C  3C      	    inc  a
089D  24      	    inc  h
089E  10F6    	    djnz $0896
08A0  210094  	    ld   hl,$9400
08A3  0604    	    ld   b,$04
08A5  79      	    ld   a,c
08A6  C62F    	    add  a,$2F
08A8  BE      	    cp   (hl)
08A9  C2DD08  	    jp   nz,$08DD
08AC  2C      	    inc  l
08AD  20F7    	    jr   nz,$08A6
08AF  3C      	    inc  a
08B0  24      	    inc  h
08B1  10F3    	    djnz $08A6
08B3  3A00B8  	    ld   a,(watchdog)
08B6  0D      	    dec  c
08B7  20D7    	    jr   nz,$0890
08B9  14      	    inc  d
08BA  0E20    	    ld   c,$20
08BC  210098  	    ld   hl,x_offset
08BF  79      	    ld   a,c
08C0  C62F    	    add  a,$2F
08C2  77      	    ld   (hl),a
08C3  2C      	    inc  l
08C4  20FA    	    jr   nz,$08C0
08C6  210098  	    ld   hl,x_offset
08C9  79      	    ld   a,c
08CA  C62F    	    add  a,$2F
08CC  BE      	    cp   (hl)
08CD  C2DD08  	    jp   nz,$08DD
08D0  2C      	    inc  l
08D1  C2CA08  	    jp   nz,$08CA
08D4  3A00B8  	    ld   a,(watchdog)
08D7  0D      	    dec  c
08D8  20E2    	    jr   nz,$08BC
08DA  C30E00  	    jp   done_RAM_test


08DD  210509  	    ld   hl,$0905
08E0  7A      	    ld   a,d
08E1  A7      	    and  a
08E2  2805    	    jr   z,$08E9
08E4  23      	    inc  hl
08E5  23      	    inc  hl
08E6  3D      	    dec  a
08E7  20FB    	    jr   nz,$08E4
08E9  31FE87  	    ld   sp,stack_location
08EC  E5      	    push hl
08ED  CD3309  	    call $0933
08F0  E1      	    pop  hl
08F1  5E      	    ld   e,(hl)
08F2  23      	    inc  hl
08F3  56      	    ld   d,(hl)
08F4  215092  	    ld   hl,$9250
08F7  01E0FF  	    ld   bc,$FFE0
08FA  1A      	    ld   a,(de)
08FB  FEFF    	    cp   $FF
08FD  CA2D09  	    jp   z,$092D
0900  77      	    ld   (hl),a
0901  13      	    inc  de
0902  09      	    add  hl,bc
0903  18F5    	    jr   $08FA
0905  0D      	    dec  c
0906  09      	    add  hl,bc
0907  15      	    dec  d
0908  09      	    add  hl,bc
0909  1D      	    dec  e
090A  09      	    add  hl,bc
090B  25      	    dec  h
090C  09      	    add  hl,bc
090D  1C      	    inc  e
090E  1B      	    dec  de
090F  0A      	    ld   a,(bc)
0910  1624    	    ld   d,$24
0912  17      	    rla
0913  10FF    	    djnz $0914
0915  1F      	    rra
0916  1B      	    dec  de
0917  0A      	    ld   a,(bc)
0918  1624    	    ld   d,$24
091A  17      	    rla
091B  10FF    	    djnz $091C
091D  0C      	    inc  c
091E  1B      	    dec  de
091F  0A      	    ld   a,(bc)
0920  1624    	    ld   d,$24
0922  17      	    rla
0923  10FF    	    djnz $0924
0925  181B    	    jr   $0942
0927  0A      	    ld   a,(bc)
0928  1624    	    ld   d,$24
092A  17      	    rla
092B  10FF    	    djnz $092C
092D  3A00B8  	    ld   a,(watchdog) ; infinite loop
0930  C32D09  	    jp   $092D

                clear_screen:
0933  3A00B8  	    ld   a,(watchdog)
0936  210090  	    ld   hl,screen_ram
0939  0604    	    ld   b,$04
093B  3624    	    ld   (hl),TILE_BLANK
093D  2C      	    inc  l
093E  20FB    	    jr   nz,$093B
0940  24      	    inc  h
0941  10F8    	    djnz $093B
0943  3A00B8  	    ld   a,(watchdog)
0946  210094  	    ld   hl,$9400
0949  0604    	    ld   b,$04
094B  3680    	    ld   (hl),$80
094D  2C      	    inc  l
094E  20FB    	    jr   nz,$094B
0950  24      	    inc  h
0951  10F8    	    djnz $094B
0953  3A00B8  	    ld   a,(watchdog)
0956  210098  	    ld   hl,x_offset
0959  3600    	    ld   (hl),$00
095B  2C      	    inc  l
095C  20FB    	    jr   nz,$0959
095E  3A00B8  	    ld   a,(watchdog)
0961  C9      	    ret
0962  00      	    nop
0963  00      	    nop
0964  00      	    nop
0965  21CE92  	    ld   hl,$92CE
0968  060D    	    ld   b,$0D
096A  11A109  	    ld   de,$09A1
096D  CD9509  	    call $0995
0970  21CE96  	    ld   hl,$96CE
0973  CD8A09  	    call $098A
0976  21CF92  	    ld   hl,$92CF
0979  060D    	    ld   b,$0D
097B  11AE09  	    ld   de,$09AE
097E  CD9509  	    call $0995
0981  21CF96  	    ld   hl,$96CF
0984  CD8A09  	    call $098A
0987  00      	    nop
0988  00      	    nop
0989  C9      	    ret
098A  11E0FF  	    ld   de,$FFE0
098D  060D    	    ld   b,$0D
098F  3687    	    ld   (hl),$87
0991  19      	    add  hl,de
0992  10FB    	    djnz $098F
0994  C9      	    ret
0995  C5      	    push bc
0996  01E0FF  	    ld   bc,$FFE0
0999  1A      	    ld   a,(de)
099A  77      	    ld   (hl),a
099B  09      	    add  hl,bc
099C  13      	    inc  de
099D  C1      	    pop  bc
099E  10F5    	    djnz $0995
09A0  C9      	    ret
09A1  24      	    inc  h
09A2  19      	    add  hl,de
09A3  15      	    dec  d
09A4  0E0A    	    ld   c,$0A
09A6  1C      	    inc  e
09A7  0E24    	    ld   c,$24
09A9  19      	    add  hl,de
09AA  1B      	    dec  de
09AB  0E1C    	    ld   c,$1C
09AD  1C      	    inc  e
09AE  24      	    inc  h
09AF  1C      	    inc  e
09B0  11181D  	    ld   de,$1D18
09B3  24      	    inc  h
09B4  0B      	    dec  bc
09B5  1E1D    	    ld   e,$1D
09B7  1D      	    dec  e
09B8  1817    	    jr   $09D1
09BA  24      	    inc  h


09BB  00      	    nop
09BC  00      	    nop
09BD  00      	    nop
09BE  214390  	    ld   hl,$9043
09C1  061C    	    ld   b,$1C
09C3  0E1D    	    ld   c,$1D
09C5  11EF09  	    ld   de,very_chunky_data_2
09C8  CDDC09  	    call $09DC
09CB  214394  	    ld   hl,$9443
09CE  061C    	    ld   b,$1C
09D0  0E1D    	    ld   c,$1D
09D2  11FF0C  	    ld   de,$0CFF
09D5  CDDC09  	    call $09DC
09D8  CD6209  	    call $0962
09DB  C9      	    ret

09DC  C5      	    push bc
09DD  E5      	    push hl
09DE  1A      	    ld   a,(de)
09DF  77      	    ld   (hl),a
09E0  23      	    inc  hl
09E1  13      	    inc  de
09E2  10FA    	    djnz $09DE
09E4  E1      	    pop  hl
09E5  012000  	    ld   bc,$0020
09E8  09      	    add  hl,bc
09E9  C1      	    pop  bc
09EA  0D      	    dec  c
09EB  C2DC09  	    jp   nz,$09DC
09EE  C9      	    ret

                very_chunky_data_2:
09EF  24      	    inc  h
09F0  24      	    inc  h
09F1  24      	    inc  h
09F2  24      	    inc  h
09F3  24      	    inc  h
09F4  24      	    inc  h
09F5  24      	    inc  h
09F6  24      	    inc  h
09F7  24      	    inc  h
09F8  24      	    inc  h
09F9  A1      	    and  c
09FA  A2      	    and  d
09FB  A2      	    and  d
09FC  24      	    inc  h
09FD  00      	    nop
09FE  24      	    inc  h
09FF  24      	    inc  h
0A00  24      	    inc  h
0A01  00      	    nop
0A02  24      	    inc  h
0A03  24      	    inc  h
0A04  24      	    inc  h
0A05  00      	    nop
0A06  24      	    inc  h
0A07  24      	    inc  h
0A08  24      	    inc  h
0A09  00      	    nop
0A0A  24      	    inc  h
0A0B  24      	    inc  h
0A0C  24      	    inc  h
0A0D  24      	    inc  h
0A0E  24      	    inc  h
0A0F  24      	    inc  h
0A10  24      	    inc  h
0A11  24      	    inc  h
0A12  24      	    inc  h
0A13  9B      	    sbc  a,e
0A14  9C      	    sbc  a,h
0A15  9D      	    sbc  a,l
0A16  A2      	    and  d
0A17  A2      	    and  d
0A18  24      	    inc  h
0A19  00      	    nop
0A1A  24      	    inc  h
0A1B  24      	    inc  h
0A1C  24      	    inc  h
0A1D  00      	    nop
0A1E  24      	    inc  h
0A1F  24      	    inc  h
0A20  24      	    inc  h
0A21  00      	    nop
0A22  24      	    inc  h
0A23  24      	    inc  h
0A24  24      	    inc  h
0A25  00      	    nop
0A26  24      	    inc  h
0A27  24      	    inc  h
0A28  24      	    inc  h
0A29  24      	    inc  h
0A2A  24      	    inc  h
0A2B  24      	    inc  h
0A2C  24      	    inc  h
0A2D  24      	    inc  h
0A2E  24      	    inc  h
0A2F  9E      	    sbc  a,(hl)
0A30  9F      	    sbc  a,a
0A31  A0      	    and  b
0A32  A2      	    and  d
0A33  A2      	    and  d
0A34  24      	    inc  h
0A35  08      	    ex   af,af'
0A36  24      	    inc  h
0A37  24      	    inc  h
0A38  24      	    inc  h
0A39  04      	    inc  b
0A3A  24      	    inc  h
0A3B  24      	    inc  h
0A3C  24      	    inc  h
0A3D  0624    	    ld   b,$24
0A3F  24      	    inc  h
0A40  24      	    inc  h
0A41  02      	    ld   (bc),a
0A42  24      	    inc  h
0A43  24      	    inc  h
0A44  24      	    inc  h
0A45  24      	    inc  h
0A46  24      	    inc  h
0A47  24      	    inc  h
0A48  24      	    inc  h
0A49  24      	    inc  h
0A4A  24      	    inc  h
0A4B  9B      	    sbc  a,e
0A4C  9C      	    sbc  a,h
0A4D  9D      	    sbc  a,l
0A4E  A2      	    and  d
0A4F  A2      	    and  d
0A50  24      	    inc  h
0A51  24      	    inc  h
0A52  24      	    inc  h
0A53  24      	    inc  h
0A54  24      	    inc  h
0A55  24      	    inc  h
0A56  24      	    inc  h
0A57  24      	    inc  h
0A58  24      	    inc  h
0A59  24      	    inc  h
0A5A  24      	    inc  h
0A5B  24      	    inc  h
0A5C  24      	    inc  h
0A5D  24      	    inc  h
0A5E  24      	    inc  h
0A5F  24      	    inc  h
0A60  24      	    inc  h
0A61  24      	    inc  h
0A62  24      	    inc  h
0A63  24      	    inc  h
0A64  24      	    inc  h
0A65  24      	    inc  h
0A66  24      	    inc  h
0A67  9E      	    sbc  a,(hl)
0A68  9F      	    sbc  a,a
0A69  A0      	    and  b
0A6A  A2      	    and  d
0A6B  A2      	    and  d
0A6C  48      	    ld   c,b
0A6D  49      	    ld   c,c
0A6E  4A      	    ld   c,d
0A6F  24      	    inc  h
0A70  24      	    inc  h
0A71  24      	    inc  h
0A72  24      	    inc  h
0A73  24      	    inc  h
0A74  92      	    sub  d
0A75  93      	    sub  e
0A76  94      	    sub  h
0A77  24      	    inc  h
0A78  24      	    inc  h
0A79  24      	    inc  h
0A7A  24      	    inc  h
0A7B  24      	    inc  h
0A7C  24      	    inc  h
0A7D  24      	    inc  h
0A7E  24      	    inc  h
0A7F  24      	    inc  h
0A80  24      	    inc  h
0A81  24      	    inc  h
0A82  24      	    inc  h
0A83  24      	    inc  h
0A84  24      	    inc  h
0A85  A1      	    and  c
0A86  A2      	    and  d
0A87  A2      	    and  d
0A88  4B      	    ld   c,e
0A89  4C      	    ld   c,h
0A8A  4D      	    ld   c,l
0A8B  24      	    inc  h
0A8C  24      	    inc  h
0A8D  A7      	    and  a
0A8E  24      	    inc  h
0A8F  24      	    inc  h
0A90  95      	    sub  l
0A91  96      	    sub  (hl)
0A92  97      	    sub  a
0A93  24      	    inc  h
0A94  24      	    inc  h
0A95  A7      	    and  a
0A96  24      	    inc  h
0A97  24      	    inc  h
0A98  24      	    inc  h
0A99  A4      	    and  h
0A9A  A6      	    and  (hl)
0A9B  A6      	    and  (hl)
0A9C  A6      	    and  (hl)
0A9D  A6      	    and  (hl)
0A9E  A6      	    and  (hl)
0A9F  A6      	    and  (hl)
0AA0  A6      	    and  (hl)
0AA1  A6      	    and  (hl)
0AA2  A2      	    and  d
0AA3  A2      	    and  d
0AA4  4E      	    ld   c,(hl)
0AA5  4F      	    ld   c,a
0AA6  50      	    ld   d,b
0AA7  24      	    inc  h
0AA8  24      	    inc  h
0AA9  24      	    inc  h
0AAA  24      	    inc  h
0AAB  24      	    inc  h
0AAC  98      	    sbc  a,b
0AAD  99      	    sbc  a,c
0AAE  9A      	    sbc  a,d
0AAF  24      	    inc  h
0AB0  24      	    inc  h
0AB1  24      	    inc  h
0AB2  24      	    inc  h
0AB3  24      	    inc  h
0AB4  A4      	    and  h
0AB5  A3      	    and  e
0AB6  A6      	    and  (hl)
0AB7  A6      	    and  (hl)
0AB8  A6      	    and  (hl)
0AB9  A6      	    and  (hl)
0ABA  A6      	    and  (hl)
0ABB  A6      	    and  (hl)
0ABC  A6      	    and  (hl)
0ABD  A6      	    and  (hl)
0ABE  A2      	    and  d
0ABF  A2      	    and  d
0AC0  48      	    ld   c,b
0AC1  49      	    ld   c,c
0AC2  4A      	    ld   c,d
0AC3  24      	    inc  h
0AC4  48      	    ld   c,b
0AC5  49      	    ld   c,c
0AC6  4A      	    ld   c,d
0AC7  24      	    inc  h
0AC8  92      	    sub  d
0AC9  93      	    sub  e
0ACA  94      	    sub  h
0ACB  24      	    inc  h
0ACC  92      	    sub  d
0ACD  93      	    sub  e
0ACE  94      	    sub  h
0ACF  A4      	    and  h
0AD0  A3      	    and  e
0AD1  A3      	    and  e
0AD2  A6      	    and  (hl)
0AD3  A8      	    xor  b
0AD4  A9      	    xor  c
0AD5  A9      	    xor  c
0AD6  A9      	    xor  c
0AD7  AA      	    xor  d
0AD8  A6      	    and  (hl)
0AD9  A6      	    and  (hl)
0ADA  A2      	    and  d
0ADB  A2      	    and  d
0ADC  4B      	    ld   c,e
0ADD  4C      	    ld   c,h
0ADE  4D      	    ld   c,l
0ADF  24      	    inc  h
0AE0  4B      	    ld   c,e
0AE1  4C      	    ld   c,h
0AE2  4D      	    ld   c,l
0AE3  24      	    inc  h
0AE4  95      	    sub  l
0AE5  96      	    sub  (hl)
0AE6  97      	    sub  a
0AE7  24      	    inc  h
0AE8  95      	    sub  l
0AE9  96      	    sub  (hl)
0AEA  97      	    sub  a
0AEB  A3      	    and  e
0AEC  A3      	    and  e
0AED  A3      	    and  e
0AEE  A6      	    and  (hl)
0AEF  AB      	    xor  e
0AF0  24      	    inc  h
0AF1  24      	    inc  h
0AF2  24      	    inc  h
0AF3  AC      	    xor  h
0AF4  A6      	    and  (hl)
0AF5  A6      	    and  (hl)
0AF6  A2      	    and  d
0AF7  A2      	    and  d
0AF8  4E      	    ld   c,(hl)
0AF9  4F      	    ld   c,a
0AFA  50      	    ld   d,b
0AFB  24      	    inc  h
0AFC  4E      	    ld   c,(hl)
0AFD  4F      	    ld   c,a
0AFE  50      	    ld   d,b
0AFF  24      	    inc  h
0B00  98      	    sbc  a,b
0B01  99      	    sbc  a,c
0B02  9A      	    sbc  a,d
0B03  24      	    inc  h
0B04  98      	    sbc  a,b
0B05  99      	    sbc  a,c
0B06  9A      	    sbc  a,d
0B07  A3      	    and  e
0B08  A3      	    and  e
0B09  A3      	    and  e
0B0A  A6      	    and  (hl)
0B0B  AB      	    xor  e
0B0C  24      	    inc  h
0B0D  24      	    inc  h
0B0E  24      	    inc  h
0B0F  AC      	    xor  h
0B10  A6      	    and  (hl)
0B11  A6      	    and  (hl)
0B12  A2      	    and  d
0B13  A2      	    and  d
0B14  48      	    ld   c,b
0B15  49      	    ld   c,c
0B16  4A      	    ld   c,d
0B17  24      	    inc  h
0B18  48      	    ld   c,b
0B19  49      	    ld   c,c
0B1A  4A      	    ld   c,d
0B1B  24      	    inc  h
0B1C  92      	    sub  d
0B1D  93      	    sub  e
0B1E  94      	    sub  h
0B1F  24      	    inc  h
0B20  92      	    sub  d
0B21  93      	    sub  e
0B22  94      	    sub  h
0B23  A3      	    and  e
0B24  A3      	    and  e
0B25  A3      	    and  e
0B26  A6      	    and  (hl)
0B27  AB      	    xor  e
0B28  24      	    inc  h
0B29  24      	    inc  h
0B2A  24      	    inc  h
0B2B  AC      	    xor  h
0B2C  A6      	    and  (hl)
0B2D  A6      	    and  (hl)
0B2E  A2      	    and  d
0B2F  A2      	    and  d
0B30  4B      	    ld   c,e
0B31  4C      	    ld   c,h
0B32  4D      	    ld   c,l
0B33  24      	    inc  h
0B34  4B      	    ld   c,e
0B35  4C      	    ld   c,h
0B36  4D      	    ld   c,l
0B37  24      	    inc  h
0B38  95      	    sub  l
0B39  96      	    sub  (hl)
0B3A  97      	    sub  a
0B3B  24      	    inc  h
0B3C  95      	    sub  l
0B3D  96      	    sub  (hl)
0B3E  97      	    sub  a
0B3F  A3      	    and  e
0B40  A3      	    and  e
0B41  A3      	    and  e
0B42  A6      	    and  (hl)
0B43  AD      	    xor  l
0B44  AE      	    xor  (hl)
0B45  AE      	    xor  (hl)
0B46  AE      	    xor  (hl)
0B47  AF      	    xor  a
0B48  A6      	    and  (hl)
0B49  A6      	    and  (hl)
0B4A  A2      	    and  d
0B4B  A2      	    and  d
0B4C  4E      	    ld   c,(hl)
0B4D  4F      	    ld   c,a
0B4E  50      	    ld   d,b
0B4F  24      	    inc  h
0B50  4E      	    ld   c,(hl)
0B51  4F      	    ld   c,a
0B52  50      	    ld   d,b
0B53  24      	    inc  h
0B54  98      	    sbc  a,b
0B55  99      	    sbc  a,c
0B56  9A      	    sbc  a,d
0B57  24      	    inc  h
0B58  98      	    sbc  a,b
0B59  99      	    sbc  a,c
0B5A  9A      	    sbc  a,d
0B5B  A3      	    and  e
0B5C  A3      	    and  e
0B5D  A3      	    and  e
0B5E  A6      	    and  (hl)
0B5F  AB      	    xor  e
0B60  24      	    inc  h
0B61  24      	    inc  h
0B62  24      	    inc  h
0B63  AC      	    xor  h
0B64  A6      	    and  (hl)
0B65  A6      	    and  (hl)
0B66  A2      	    and  d
0B67  A2      	    and  d
0B68  24      	    inc  h
0B69  24      	    inc  h
0B6A  24      	    inc  h
0B6B  24      	    inc  h
0B6C  24      	    inc  h
0B6D  24      	    inc  h
0B6E  24      	    inc  h
0B6F  24      	    inc  h
0B70  24      	    inc  h
0B71  24      	    inc  h
0B72  24      	    inc  h
0B73  24      	    inc  h
0B74  24      	    inc  h
0B75  24      	    inc  h
0B76  24      	    inc  h
0B77  A3      	    and  e
0B78  A3      	    and  e
0B79  A3      	    and  e
0B7A  A6      	    and  (hl)
0B7B  AB      	    xor  e
0B7C  24      	    inc  h
0B7D  24      	    inc  h
0B7E  24      	    inc  h
0B7F  AC      	    xor  h
0B80  A6      	    and  (hl)
0B81  A6      	    and  (hl)
0B82  A2      	    and  d
0B83  A2      	    and  d
0B84  24      	    inc  h
0B85  24      	    inc  h
0B86  24      	    inc  h
0B87  24      	    inc  h
0B88  24      	    inc  h
0B89  24      	    inc  h
0B8A  24      	    inc  h
0B8B  24      	    inc  h
0B8C  24      	    inc  h
0B8D  24      	    inc  h
0B8E  24      	    inc  h
0B8F  24      	    inc  h
0B90  24      	    inc  h
0B91  24      	    inc  h
0B92  24      	    inc  h
0B93  A3      	    and  e
0B94  A3      	    and  e
0B95  A3      	    and  e
0B96  A6      	    and  (hl)
0B97  AB      	    xor  e
0B98  24      	    inc  h
0B99  24      	    inc  h
0B9A  24      	    inc  h
0B9B  AC      	    xor  h
0B9C  A6      	    and  (hl)
0B9D  A6      	    and  (hl)
0B9E  A2      	    and  d
0B9F  A2      	    and  d
0BA0  24      	    inc  h
0BA1  00      	    nop
0BA2  24      	    inc  h
0BA3  24      	    inc  h
0BA4  24      	    inc  h
0BA5  00      	    nop
0BA6  24      	    inc  h
0BA7  24      	    inc  h
0BA8  24      	    inc  h
0BA9  00      	    nop
0BAA  24      	    inc  h
0BAB  24      	    inc  h
0BAC  24      	    inc  h
0BAD  00      	    nop
0BAE  24      	    inc  h
0BAF  A3      	    and  e
0BB0  A3      	    and  e
0BB1  A3      	    and  e
0BB2  A6      	    and  (hl)
0BB3  AD      	    xor  l
0BB4  AE      	    xor  (hl)
0BB5  AE      	    xor  (hl)
0BB6  AE      	    xor  (hl)
0BB7  AF      	    xor  a
0BB8  A6      	    and  (hl)
0BB9  A6      	    and  (hl)
0BBA  A2      	    and  d
0BBB  A2      	    and  d
0BBC  24      	    inc  h
0BBD  00      	    nop
0BBE  24      	    inc  h
0BBF  24      	    inc  h
0BC0  24      	    inc  h
0BC1  00      	    nop
0BC2  24      	    inc  h
0BC3  24      	    inc  h
0BC4  24      	    inc  h
0BC5  00      	    nop
0BC6  24      	    inc  h
0BC7  24      	    inc  h
0BC8  24      	    inc  h
0BC9  00      	    nop
0BCA  24      	    inc  h
0BCB  A3      	    and  e
0BCC  A3      	    and  e
0BCD  A3      	    and  e
0BCE  A6      	    and  (hl)
0BCF  AB      	    xor  e
0BD0  24      	    inc  h
0BD1  24      	    inc  h
0BD2  24      	    inc  h
0BD3  AC      	    xor  h
0BD4  A6      	    and  (hl)
0BD5  A6      	    and  (hl)
0BD6  A2      	    and  d
0BD7  A2      	    and  d
0BD8  24      	    inc  h
0BD9  05      	    dec  b
0BDA  24      	    inc  h
0BDB  24      	    inc  h
0BDC  24      	    inc  h
0BDD  08      	    ex   af,af'
0BDE  24      	    inc  h
0BDF  24      	    inc  h
0BE0  24      	    inc  h
0BE1  00      	    nop
0BE2  24      	    inc  h
0BE3  24      	    inc  h
0BE4  24      	    inc  h
0BE5  05      	    dec  b
0BE6  24      	    inc  h
0BE7  A3      	    and  e
0BE8  A3      	    and  e
0BE9  A3      	    and  e
0BEA  A6      	    and  (hl)
0BEB  AB      	    xor  e
0BEC  24      	    inc  h
0BED  24      	    inc  h
0BEE  24      	    inc  h
0BEF  AC      	    xor  h
0BF0  A6      	    and  (hl)
0BF1  A6      	    and  (hl)
0BF2  A2      	    and  d
0BF3  A2      	    and  d
0BF4  24      	    inc  h
0BF5  012424  	    ld   bc,$2424
0BF8  24      	    inc  h
0BF9  24      	    inc  h
0BFA  24      	    inc  h
0BFB  24      	    inc  h
0BFC  24      	    inc  h
0BFD  012424  	    ld   bc,$2424
0C00  24      	    inc  h
0C01  24      	    inc  h
0C02  24      	    inc  h
0C03  A3      	    and  e
0C04  A3      	    and  e
0C05  A3      	    and  e
0C06  A6      	    and  (hl)
0C07  AB      	    xor  e
0C08  24      	    inc  h
0C09  24      	    inc  h
0C0A  24      	    inc  h
0C0B  AC      	    xor  h
0C0C  A6      	    and  (hl)
0C0D  A6      	    and  (hl)
0C0E  A2      	    and  d
0C0F  A2      	    and  d
0C10  80      	    add  a,b
0C11  81      	    add  a,c
0C12  82      	    add  a,d
0C13  24      	    inc  h
0C14  24      	    inc  h
0C15  24      	    inc  h
0C16  24      	    inc  h
0C17  24      	    inc  h
0C18  89      	    adc  a,c
0C19  8A      	    adc  a,d
0C1A  8B      	    adc  a,e
0C1B  24      	    inc  h
0C1C  24      	    inc  h
0C1D  24      	    inc  h
0C1E  24      	    inc  h
0C1F  A5      	    and  l
0C20  A3      	    and  e
0C21  A3      	    and  e
0C22  A6      	    and  (hl)
0C23  B0      	    or   b
0C24  B1      	    or   c
0C25  B1      	    or   c
0C26  B1      	    or   c
0C27  B2      	    or   d
0C28  A6      	    and  (hl)
0C29  A6      	    and  (hl)
0C2A  A2      	    and  d
0C2B  A2      	    and  d
0C2C  83      	    add  a,e
0C2D  84      	    add  a,h
0C2E  85      	    add  a,l
0C2F  24      	    inc  h
0C30  24      	    inc  h
0C31  A7      	    and  a
0C32  24      	    inc  h
0C33  24      	    inc  h
0C34  8C      	    adc  a,h
0C35  8D      	    adc  a,l
0C36  8E      	    adc  a,(hl)
0C37  24      	    inc  h
0C38  24      	    inc  h
0C39  A7      	    and  a
0C3A  24      	    inc  h
0C3B  24      	    inc  h
0C3C  A5      	    and  l
0C3D  A3      	    and  e
0C3E  A6      	    and  (hl)
0C3F  A6      	    and  (hl)
0C40  A6      	    and  (hl)
0C41  A6      	    and  (hl)
0C42  A6      	    and  (hl)
0C43  A6      	    and  (hl)
0C44  A6      	    and  (hl)
0C45  A6      	    and  (hl)
0C46  A2      	    and  d
0C47  A2      	    and  d
0C48  86      	    add  a,(hl)
0C49  87      	    add  a,a
0C4A  88      	    adc  a,b
0C4B  24      	    inc  h
0C4C  24      	    inc  h
0C4D  24      	    inc  h
0C4E  24      	    inc  h
0C4F  24      	    inc  h
0C50  8F      	    adc  a,a
0C51  90      	    sub  b
0C52  91      	    sub  c
0C53  24      	    inc  h
0C54  24      	    inc  h
0C55  24      	    inc  h
0C56  24      	    inc  h
0C57  24      	    inc  h
0C58  24      	    inc  h
0C59  A5      	    and  l
0C5A  A6      	    and  (hl)
0C5B  A6      	    and  (hl)
0C5C  A6      	    and  (hl)
0C5D  A6      	    and  (hl)
0C5E  A6      	    and  (hl)
0C5F  A6      	    and  (hl)
0C60  A6      	    and  (hl)
0C61  A6      	    and  (hl)
0C62  A2      	    and  d
0C63  A2      	    and  d
0C64  80      	    add  a,b
0C65  81      	    add  a,c
0C66  82      	    add  a,d
0C67  24      	    inc  h
0C68  80      	    add  a,b
0C69  81      	    add  a,c
0C6A  82      	    add  a,d
0C6B  24      	    inc  h
0C6C  89      	    adc  a,c
0C6D  8A      	    adc  a,d
0C6E  8B      	    adc  a,e
0C6F  24      	    inc  h
0C70  89      	    adc  a,c
0C71  8A      	    adc  a,d
0C72  8B      	    adc  a,e
0C73  24      	    inc  h
0C74  24      	    inc  h
0C75  24      	    inc  h
0C76  24      	    inc  h
0C77  24      	    inc  h
0C78  24      	    inc  h
0C79  24      	    inc  h
0C7A  24      	    inc  h
0C7B  9B      	    sbc  a,e
0C7C  9C      	    sbc  a,h
0C7D  9D      	    sbc  a,l
0C7E  A2      	    and  d
0C7F  A2      	    and  d
0C80  83      	    add  a,e
0C81  84      	    add  a,h
0C82  85      	    add  a,l
0C83  24      	    inc  h
0C84  83      	    add  a,e
0C85  84      	    add  a,h
0C86  85      	    add  a,l
0C87  24      	    inc  h
0C88  8C      	    adc  a,h
0C89  8D      	    adc  a,l
0C8A  8E      	    adc  a,(hl)
0C8B  24      	    inc  h
0C8C  8C      	    adc  a,h
0C8D  8D      	    adc  a,l
0C8E  8E      	    adc  a,(hl)
0C8F  24      	    inc  h
0C90  24      	    inc  h
0C91  24      	    inc  h
0C92  24      	    inc  h
0C93  24      	    inc  h
0C94  24      	    inc  h
0C95  24      	    inc  h
0C96  24      	    inc  h
0C97  9E      	    sbc  a,(hl)
0C98  9F      	    sbc  a,a
0C99  A0      	    and  b
0C9A  A2      	    and  d
0C9B  A2      	    and  d
0C9C  86      	    add  a,(hl)
0C9D  87      	    add  a,a
0C9E  88      	    adc  a,b
0C9F  24      	    inc  h
0CA0  86      	    add  a,(hl)
0CA1  87      	    add  a,a
0CA2  88      	    adc  a,b
0CA3  24      	    inc  h
0CA4  8F      	    adc  a,a
0CA5  90      	    sub  b
0CA6  91      	    sub  c
0CA7  24      	    inc  h
0CA8  8F      	    adc  a,a
0CA9  90      	    sub  b
0CAA  91      	    sub  c
0CAB  24      	    inc  h
0CAC  24      	    inc  h
0CAD  24      	    inc  h
0CAE  24      	    inc  h
0CAF  24      	    inc  h
0CB0  24      	    inc  h
0CB1  24      	    inc  h
0CB2  24      	    inc  h
0CB3  9B      	    sbc  a,e
0CB4  9C      	    sbc  a,h
0CB5  9D      	    sbc  a,l
0CB6  A2      	    and  d
0CB7  A2      	    and  d
0CB8  80      	    add  a,b
0CB9  81      	    add  a,c
0CBA  82      	    add  a,d
0CBB  24      	    inc  h
0CBC  80      	    add  a,b
0CBD  81      	    add  a,c
0CBE  82      	    add  a,d
0CBF  24      	    inc  h
0CC0  89      	    adc  a,c
0CC1  8A      	    adc  a,d
0CC2  8B      	    adc  a,e
0CC3  24      	    inc  h
0CC4  89      	    adc  a,c
0CC5  8A      	    adc  a,d
0CC6  8B      	    adc  a,e
0CC7  24      	    inc  h
0CC8  24      	    inc  h
0CC9  24      	    inc  h
0CCA  24      	    inc  h
0CCB  24      	    inc  h
0CCC  24      	    inc  h
0CCD  24      	    inc  h
0CCE  24      	    inc  h
0CCF  9E      	    sbc  a,(hl)
0CD0  9F      	    sbc  a,a
0CD1  A0      	    and  b
0CD2  A2      	    and  d
0CD3  A2      	    and  d
0CD4  83      	    add  a,e
0CD5  84      	    add  a,h
0CD6  85      	    add  a,l
0CD7  24      	    inc  h
0CD8  83      	    add  a,e
0CD9  84      	    add  a,h
0CDA  85      	    add  a,l
0CDB  24      	    inc  h
0CDC  8C      	    adc  a,h
0CDD  8D      	    adc  a,l
0CDE  8E      	    adc  a,(hl)
0CDF  24      	    inc  h
0CE0  8C      	    adc  a,h
0CE1  8D      	    adc  a,l
0CE2  8E      	    adc  a,(hl)
0CE3  24      	    inc  h
0CE4  24      	    inc  h
0CE5  24      	    inc  h
0CE6  24      	    inc  h
0CE7  24      	    inc  h
0CE8  24      	    inc  h
0CE9  24      	    inc  h
0CEA  24      	    inc  h
0CEB  24      	    inc  h
0CEC  24      	    inc  h
0CED  A1      	    and  c
0CEE  A2      	    and  d
0CEF  A2      	    and  d
0CF0  86      	    add  a,(hl)
0CF1  87      	    add  a,a
0CF2  88      	    adc  a,b
0CF3  24      	    inc  h
0CF4  86      	    add  a,(hl)
0CF5  87      	    add  a,a
0CF6  88      	    adc  a,b
0CF7  24      	    inc  h
0CF8  8F      	    adc  a,a
0CF9  90      	    sub  b
0CFA  91      	    sub  c
0CFB  24      	    inc  h
0CFC  8F      	    adc  a,a
0CFD  90      	    sub  b
0CFE  91      	    sub  c
0CFF  83      	    add  a,e
0D00  83      	    add  a,e
0D01  83      	    add  a,e
0D02  83      	    add  a,e
0D03  83      	    add  a,e
0D04  83      	    add  a,e
0D05  83      	    add  a,e
0D06  83      	    add  a,e
0D07  83      	    add  a,e
0D08  83      	    add  a,e
0D09  81      	    add  a,c
0D0A  81      	    add  a,c
0D0B  81      	    add  a,c
0D0C  80      	    add  a,b
0D0D  86      	    add  a,(hl)
0D0E  80      	    add  a,b
0D0F  80      	    add  a,b
0D10  80      	    add  a,b
0D11  86      	    add  a,(hl)
0D12  80      	    add  a,b
0D13  80      	    add  a,b
0D14  80      	    add  a,b
0D15  86      	    add  a,(hl)
0D16  80      	    add  a,b
0D17  80      	    add  a,b
0D18  80      	    add  a,b
0D19  86      	    add  a,(hl)
0D1A  80      	    add  a,b
0D1B  83      	    add  a,e
0D1C  83      	    add  a,e
0D1D  83      	    add  a,e
0D1E  83      	    add  a,e
0D1F  83      	    add  a,e
0D20  83      	    add  a,e
0D21  83      	    add  a,e
0D22  83      	    add  a,e
0D23  81      	    add  a,c
0D24  81      	    add  a,c
0D25  81      	    add  a,c
0D26  81      	    add  a,c
0D27  81      	    add  a,c
0D28  80      	    add  a,b
0D29  86      	    add  a,(hl)
0D2A  80      	    add  a,b
0D2B  80      	    add  a,b
0D2C  80      	    add  a,b
0D2D  86      	    add  a,(hl)
0D2E  80      	    add  a,b
0D2F  80      	    add  a,b
0D30  80      	    add  a,b
0D31  86      	    add  a,(hl)
0D32  80      	    add  a,b
0D33  80      	    add  a,b
0D34  80      	    add  a,b
0D35  86      	    add  a,(hl)
0D36  80      	    add  a,b
0D37  83      	    add  a,e
0D38  83      	    add  a,e
0D39  83      	    add  a,e
0D3A  83      	    add  a,e
0D3B  83      	    add  a,e
0D3C  83      	    add  a,e
0D3D  83      	    add  a,e
0D3E  83      	    add  a,e
0D3F  81      	    add  a,c
0D40  81      	    add  a,c
0D41  81      	    add  a,c
0D42  81      	    add  a,c
0D43  81      	    add  a,c
0D44  80      	    add  a,b
0D45  86      	    add  a,(hl)
0D46  80      	    add  a,b
0D47  80      	    add  a,b
0D48  80      	    add  a,b
0D49  86      	    add  a,(hl)
0D4A  80      	    add  a,b
0D4B  80      	    add  a,b
0D4C  80      	    add  a,b
0D4D  86      	    add  a,(hl)
0D4E  80      	    add  a,b
0D4F  80      	    add  a,b
0D50  80      	    add  a,b
0D51  86      	    add  a,(hl)
0D52  80      	    add  a,b
0D53  83      	    add  a,e
0D54  83      	    add  a,e
0D55  83      	    add  a,e
0D56  83      	    add  a,e
0D57  83      	    add  a,e
0D58  83      	    add  a,e
0D59  83      	    add  a,e
0D5A  83      	    add  a,e
0D5B  81      	    add  a,c
0D5C  81      	    add  a,c
0D5D  81      	    add  a,c
0D5E  81      	    add  a,c
0D5F  81      	    add  a,c
0D60  80      	    add  a,b
0D61  80      	    add  a,b
0D62  80      	    add  a,b
0D63  80      	    add  a,b
0D64  80      	    add  a,b
0D65  80      	    add  a,b
0D66  80      	    add  a,b
0D67  80      	    add  a,b
0D68  80      	    add  a,b
0D69  80      	    add  a,b
0D6A  80      	    add  a,b
0D6B  80      	    add  a,b
0D6C  80      	    add  a,b
0D6D  80      	    add  a,b
0D6E  80      	    add  a,b
0D6F  83      	    add  a,e
0D70  83      	    add  a,e
0D71  83      	    add  a,e
0D72  83      	    add  a,e
0D73  83      	    add  a,e
0D74  83      	    add  a,e
0D75  83      	    add  a,e
0D76  83      	    add  a,e
0D77  81      	    add  a,c
0D78  81      	    add  a,c
0D79  81      	    add  a,c
0D7A  81      	    add  a,c
0D7B  81      	    add  a,c
0D7C  87      	    add  a,a
0D7D  87      	    add  a,a
0D7E  87      	    add  a,a
0D7F  80      	    add  a,b
0D80  80      	    add  a,b
0D81  80      	    add  a,b
0D82  80      	    add  a,b
0D83  80      	    add  a,b
0D84  86      	    add  a,(hl)
0D85  86      	    add  a,(hl)
0D86  86      	    add  a,(hl)
0D87  80      	    add  a,b
0D88  80      	    add  a,b
0D89  80      	    add  a,b
0D8A  80      	    add  a,b
0D8B  83      	    add  a,e
0D8C  83      	    add  a,e
0D8D  83      	    add  a,e
0D8E  83      	    add  a,e
0D8F  83      	    add  a,e
0D90  83      	    add  a,e
0D91  83      	    add  a,e
0D92  83      	    add  a,e
0D93  83      	    add  a,e
0D94  83      	    add  a,e
0D95  81      	    add  a,c
0D96  81      	    add  a,c
0D97  81      	    add  a,c
0D98  87      	    add  a,a
0D99  87      	    add  a,a
0D9A  87      	    add  a,a
0D9B  80      	    add  a,b
0D9C  80      	    add  a,b
0D9D  87      	    add  a,a
0D9E  80      	    add  a,b
0D9F  80      	    add  a,b
0DA0  86      	    add  a,(hl)
0DA1  86      	    add  a,(hl)
0DA2  86      	    add  a,(hl)
0DA3  80      	    add  a,b
0DA4  80      	    add  a,b
0DA5  87      	    add  a,a
0DA6  80      	    add  a,b
0DA7  83      	    add  a,e
0DA8  83      	    add  a,e
0DA9  83      	    add  a,e
0DAA  86      	    add  a,(hl)
0DAB  86      	    add  a,(hl)
0DAC  86      	    add  a,(hl)
0DAD  86      	    add  a,(hl)
0DAE  86      	    add  a,(hl)
0DAF  86      	    add  a,(hl)
0DB0  86      	    add  a,(hl)
0DB1  86      	    add  a,(hl)
0DB2  81      	    add  a,c
0DB3  81      	    add  a,c
0DB4  87      	    add  a,a
0DB5  87      	    add  a,a
0DB6  87      	    add  a,a
0DB7  80      	    add  a,b
0DB8  80      	    add  a,b
0DB9  80      	    add  a,b
0DBA  80      	    add  a,b
0DBB  80      	    add  a,b
0DBC  86      	    add  a,(hl)
0DBD  86      	    add  a,(hl)
0DBE  86      	    add  a,(hl)
0DBF  80      	    add  a,b
0DC0  80      	    add  a,b
0DC1  80      	    add  a,b
0DC2  80      	    add  a,b
0DC3  83      	    add  a,e
0DC4  83      	    add  a,e
0DC5  83      	    add  a,e
0DC6  86      	    add  a,(hl)
0DC7  86      	    add  a,(hl)
0DC8  86      	    add  a,(hl)
0DC9  86      	    add  a,(hl)
0DCA  86      	    add  a,(hl)
0DCB  86      	    add  a,(hl)
0DCC  86      	    add  a,(hl)
0DCD  86      	    add  a,(hl)
0DCE  81      	    add  a,c
0DCF  81      	    add  a,c
0DD0  87      	    add  a,a
0DD1  87      	    add  a,a
0DD2  87      	    add  a,a
0DD3  80      	    add  a,b
0DD4  87      	    add  a,a
0DD5  87      	    add  a,a
0DD6  87      	    add  a,a
0DD7  80      	    add  a,b
0DD8  86      	    add  a,(hl)
0DD9  86      	    add  a,(hl)
0DDA  86      	    add  a,(hl)
0DDB  80      	    add  a,b
0DDC  86      	    add  a,(hl)
0DDD  86      	    add  a,(hl)
0DDE  86      	    add  a,(hl)
0DDF  83      	    add  a,e
0DE0  83      	    add  a,e
0DE1  83      	    add  a,e
0DE2  86      	    add  a,(hl)
0DE3  85      	    add  a,l
0DE4  85      	    add  a,l
0DE5  85      	    add  a,l
0DE6  85      	    add  a,l
0DE7  85      	    add  a,l
0DE8  86      	    add  a,(hl)
0DE9  86      	    add  a,(hl)
0DEA  81      	    add  a,c
0DEB  81      	    add  a,c
0DEC  87      	    add  a,a
0DED  87      	    add  a,a
0DEE  87      	    add  a,a
0DEF  80      	    add  a,b
0DF0  87      	    add  a,a
0DF1  87      	    add  a,a
0DF2  87      	    add  a,a
0DF3  80      	    add  a,b
0DF4  86      	    add  a,(hl)
0DF5  86      	    add  a,(hl)
0DF6  86      	    add  a,(hl)
0DF7  80      	    add  a,b
0DF8  86      	    add  a,(hl)
0DF9  86      	    add  a,(hl)
0DFA  86      	    add  a,(hl)
0DFB  83      	    add  a,e
0DFC  83      	    add  a,e
0DFD  83      	    add  a,e
0DFE  86      	    add  a,(hl)
0DFF  85      	    add  a,l
0E00  80      	    add  a,b
0E01  80      	    add  a,b
0E02  80      	    add  a,b
0E03  85      	    add  a,l
0E04  86      	    add  a,(hl)
0E05  86      	    add  a,(hl)
0E06  81      	    add  a,c
0E07  81      	    add  a,c
0E08  87      	    add  a,a
0E09  87      	    add  a,a
0E0A  87      	    add  a,a
0E0B  80      	    add  a,b
0E0C  87      	    add  a,a
0E0D  87      	    add  a,a
0E0E  87      	    add  a,a
0E0F  80      	    add  a,b
0E10  86      	    add  a,(hl)
0E11  86      	    add  a,(hl)
0E12  86      	    add  a,(hl)
0E13  80      	    add  a,b
0E14  86      	    add  a,(hl)
0E15  86      	    add  a,(hl)
0E16  86      	    add  a,(hl)
0E17  83      	    add  a,e
0E18  83      	    add  a,e
0E19  83      	    add  a,e
0E1A  86      	    add  a,(hl)
0E1B  85      	    add  a,l
0E1C  80      	    add  a,b
0E1D  80      	    add  a,b
0E1E  80      	    add  a,b
0E1F  85      	    add  a,l
0E20  86      	    add  a,(hl)
0E21  86      	    add  a,(hl)
0E22  81      	    add  a,c
0E23  81      	    add  a,c
0E24  87      	    add  a,a
0E25  87      	    add  a,a
0E26  87      	    add  a,a
0E27  80      	    add  a,b
0E28  87      	    add  a,a
0E29  87      	    add  a,a
0E2A  87      	    add  a,a
0E2B  80      	    add  a,b
0E2C  86      	    add  a,(hl)
0E2D  86      	    add  a,(hl)
0E2E  86      	    add  a,(hl)
0E2F  80      	    add  a,b
0E30  86      	    add  a,(hl)
0E31  86      	    add  a,(hl)
0E32  86      	    add  a,(hl)
0E33  83      	    add  a,e
0E34  83      	    add  a,e
0E35  83      	    add  a,e
0E36  86      	    add  a,(hl)
0E37  85      	    add  a,l
0E38  80      	    add  a,b
0E39  80      	    add  a,b
0E3A  80      	    add  a,b
0E3B  85      	    add  a,l
0E3C  86      	    add  a,(hl)
0E3D  86      	    add  a,(hl)
0E3E  81      	    add  a,c
0E3F  81      	    add  a,c
0E40  87      	    add  a,a
0E41  87      	    add  a,a
0E42  87      	    add  a,a
0E43  80      	    add  a,b
0E44  87      	    add  a,a
0E45  87      	    add  a,a
0E46  87      	    add  a,a
0E47  80      	    add  a,b
0E48  86      	    add  a,(hl)
0E49  86      	    add  a,(hl)
0E4A  86      	    add  a,(hl)
0E4B  80      	    add  a,b
0E4C  86      	    add  a,(hl)
0E4D  86      	    add  a,(hl)
0E4E  86      	    add  a,(hl)
0E4F  83      	    add  a,e
0E50  83      	    add  a,e
0E51  83      	    add  a,e
0E52  86      	    add  a,(hl)
0E53  85      	    add  a,l
0E54  85      	    add  a,l
0E55  85      	    add  a,l
0E56  85      	    add  a,l
0E57  85      	    add  a,l
0E58  86      	    add  a,(hl)
0E59  86      	    add  a,(hl)
0E5A  81      	    add  a,c
0E5B  81      	    add  a,c
0E5C  87      	    add  a,a
0E5D  87      	    add  a,a
0E5E  87      	    add  a,a
0E5F  80      	    add  a,b
0E60  87      	    add  a,a
0E61  87      	    add  a,a
0E62  87      	    add  a,a
0E63  80      	    add  a,b
0E64  86      	    add  a,(hl)
0E65  86      	    add  a,(hl)
0E66  86      	    add  a,(hl)
0E67  80      	    add  a,b
0E68  86      	    add  a,(hl)
0E69  86      	    add  a,(hl)
0E6A  86      	    add  a,(hl)
0E6B  83      	    add  a,e
0E6C  83      	    add  a,e
0E6D  83      	    add  a,e
0E6E  86      	    add  a,(hl)
0E6F  85      	    add  a,l
0E70  80      	    add  a,b
0E71  80      	    add  a,b
0E72  80      	    add  a,b
0E73  85      	    add  a,l
0E74  86      	    add  a,(hl)
0E75  86      	    add  a,(hl)
0E76  81      	    add  a,c
0E77  81      	    add  a,c
0E78  80      	    add  a,b
0E79  80      	    add  a,b
0E7A  80      	    add  a,b
0E7B  80      	    add  a,b
0E7C  80      	    add  a,b
0E7D  80      	    add  a,b
0E7E  80      	    add  a,b
0E7F  80      	    add  a,b
0E80  80      	    add  a,b
0E81  80      	    add  a,b
0E82  80      	    add  a,b
0E83  80      	    add  a,b
0E84  80      	    add  a,b
0E85  80      	    add  a,b
0E86  80      	    add  a,b
0E87  83      	    add  a,e
0E88  83      	    add  a,e
0E89  83      	    add  a,e
0E8A  86      	    add  a,(hl)
0E8B  85      	    add  a,l
0E8C  80      	    add  a,b
0E8D  80      	    add  a,b
0E8E  80      	    add  a,b
0E8F  85      	    add  a,l
0E90  86      	    add  a,(hl)
0E91  86      	    add  a,(hl)
0E92  81      	    add  a,c
0E93  81      	    add  a,c
0E94  80      	    add  a,b
0E95  80      	    add  a,b
0E96  80      	    add  a,b
0E97  80      	    add  a,b
0E98  80      	    add  a,b
0E99  80      	    add  a,b
0E9A  80      	    add  a,b
0E9B  80      	    add  a,b
0E9C  80      	    add  a,b
0E9D  80      	    add  a,b
0E9E  80      	    add  a,b
0E9F  80      	    add  a,b
0EA0  80      	    add  a,b
0EA1  80      	    add  a,b
0EA2  80      	    add  a,b
0EA3  83      	    add  a,e
0EA4  83      	    add  a,e
0EA5  83      	    add  a,e
0EA6  86      	    add  a,(hl)
0EA7  85      	    add  a,l
0EA8  80      	    add  a,b
0EA9  80      	    add  a,b
0EAA  80      	    add  a,b
0EAB  85      	    add  a,l
0EAC  86      	    add  a,(hl)
0EAD  86      	    add  a,(hl)
0EAE  81      	    add  a,c
0EAF  81      	    add  a,c
0EB0  80      	    add  a,b
0EB1  86      	    add  a,(hl)
0EB2  80      	    add  a,b
0EB3  80      	    add  a,b
0EB4  80      	    add  a,b
0EB5  86      	    add  a,(hl)
0EB6  80      	    add  a,b
0EB7  80      	    add  a,b
0EB8  80      	    add  a,b
0EB9  86      	    add  a,(hl)
0EBA  80      	    add  a,b
0EBB  80      	    add  a,b
0EBC  80      	    add  a,b
0EBD  86      	    add  a,(hl)
0EBE  80      	    add  a,b
0EBF  83      	    add  a,e
0EC0  83      	    add  a,e
0EC1  83      	    add  a,e
0EC2  86      	    add  a,(hl)
0EC3  85      	    add  a,l
0EC4  85      	    add  a,l
0EC5  85      	    add  a,l
0EC6  85      	    add  a,l
0EC7  85      	    add  a,l
0EC8  86      	    add  a,(hl)
0EC9  86      	    add  a,(hl)
0ECA  81      	    add  a,c
0ECB  81      	    add  a,c
0ECC  80      	    add  a,b
0ECD  86      	    add  a,(hl)
0ECE  80      	    add  a,b
0ECF  80      	    add  a,b
0ED0  80      	    add  a,b
0ED1  86      	    add  a,(hl)
0ED2  80      	    add  a,b
0ED3  80      	    add  a,b
0ED4  80      	    add  a,b
0ED5  86      	    add  a,(hl)
0ED6  80      	    add  a,b
0ED7  80      	    add  a,b
0ED8  80      	    add  a,b
0ED9  86      	    add  a,(hl)
0EDA  80      	    add  a,b
0EDB  83      	    add  a,e
0EDC  83      	    add  a,e
0EDD  83      	    add  a,e
0EDE  86      	    add  a,(hl)
0EDF  85      	    add  a,l
0EE0  80      	    add  a,b
0EE1  80      	    add  a,b
0EE2  80      	    add  a,b
0EE3  85      	    add  a,l
0EE4  86      	    add  a,(hl)
0EE5  86      	    add  a,(hl)
0EE6  81      	    add  a,c
0EE7  81      	    add  a,c
0EE8  80      	    add  a,b
0EE9  86      	    add  a,(hl)
0EEA  80      	    add  a,b
0EEB  80      	    add  a,b
0EEC  80      	    add  a,b
0EED  86      	    add  a,(hl)
0EEE  80      	    add  a,b
0EEF  80      	    add  a,b
0EF0  80      	    add  a,b
0EF1  86      	    add  a,(hl)
0EF2  80      	    add  a,b
0EF3  80      	    add  a,b
0EF4  80      	    add  a,b
0EF5  86      	    add  a,(hl)
0EF6  80      	    add  a,b
0EF7  83      	    add  a,e
0EF8  83      	    add  a,e
0EF9  83      	    add  a,e
0EFA  86      	    add  a,(hl)
0EFB  85      	    add  a,l
0EFC  80      	    add  a,b
0EFD  80      	    add  a,b
0EFE  80      	    add  a,b
0EFF  85      	    add  a,l
0F00  86      	    add  a,(hl)
0F01  86      	    add  a,(hl)
0F02  81      	    add  a,c
0F03  81      	    add  a,c
0F04  80      	    add  a,b
0F05  86      	    add  a,(hl)
0F06  80      	    add  a,b
0F07  80      	    add  a,b
0F08  80      	    add  a,b
0F09  80      	    add  a,b
0F0A  80      	    add  a,b
0F0B  80      	    add  a,b
0F0C  80      	    add  a,b
0F0D  86      	    add  a,(hl)
0F0E  80      	    add  a,b
0F0F  80      	    add  a,b
0F10  80      	    add  a,b
0F11  80      	    add  a,b
0F12  80      	    add  a,b
0F13  83      	    add  a,e
0F14  83      	    add  a,e
0F15  83      	    add  a,e
0F16  86      	    add  a,(hl)
0F17  85      	    add  a,l
0F18  80      	    add  a,b
0F19  80      	    add  a,b
0F1A  80      	    add  a,b
0F1B  85      	    add  a,l
0F1C  86      	    add  a,(hl)
0F1D  86      	    add  a,(hl)
0F1E  81      	    add  a,c
0F1F  81      	    add  a,c
0F20  84      	    add  a,h
0F21  84      	    add  a,h
0F22  84      	    add  a,h
0F23  80      	    add  a,b
0F24  80      	    add  a,b
0F25  80      	    add  a,b
0F26  80      	    add  a,b
0F27  80      	    add  a,b
0F28  86      	    add  a,(hl)
0F29  86      	    add  a,(hl)
0F2A  86      	    add  a,(hl)
0F2B  80      	    add  a,b
0F2C  80      	    add  a,b
0F2D  80      	    add  a,b
0F2E  80      	    add  a,b
0F2F  83      	    add  a,e
0F30  83      	    add  a,e
0F31  83      	    add  a,e
0F32  86      	    add  a,(hl)
0F33  85      	    add  a,l
0F34  85      	    add  a,l
0F35  85      	    add  a,l
0F36  85      	    add  a,l
0F37  85      	    add  a,l
0F38  86      	    add  a,(hl)
0F39  86      	    add  a,(hl)
0F3A  81      	    add  a,c
0F3B  81      	    add  a,c
0F3C  84      	    add  a,h
0F3D  84      	    add  a,h
0F3E  84      	    add  a,h
0F3F  80      	    add  a,b
0F40  80      	    add  a,b
0F41  87      	    add  a,a
0F42  80      	    add  a,b
0F43  80      	    add  a,b
0F44  86      	    add  a,(hl)
0F45  86      	    add  a,(hl)
0F46  86      	    add  a,(hl)
0F47  80      	    add  a,b
0F48  80      	    add  a,b
0F49  87      	    add  a,a
0F4A  80      	    add  a,b
0F4B  83      	    add  a,e
0F4C  83      	    add  a,e
0F4D  83      	    add  a,e
0F4E  86      	    add  a,(hl)
0F4F  86      	    add  a,(hl)
0F50  86      	    add  a,(hl)
0F51  86      	    add  a,(hl)
0F52  86      	    add  a,(hl)
0F53  86      	    add  a,(hl)
0F54  86      	    add  a,(hl)
0F55  86      	    add  a,(hl)
0F56  81      	    add  a,c
0F57  81      	    add  a,c
0F58  84      	    add  a,h
0F59  84      	    add  a,h
0F5A  84      	    add  a,h
0F5B  80      	    add  a,b
0F5C  80      	    add  a,b
0F5D  80      	    add  a,b
0F5E  80      	    add  a,b
0F5F  80      	    add  a,b
0F60  86      	    add  a,(hl)
0F61  86      	    add  a,(hl)
0F62  86      	    add  a,(hl)
0F63  80      	    add  a,b
0F64  80      	    add  a,b
0F65  80      	    add  a,b
0F66  80      	    add  a,b
0F67  83      	    add  a,e
0F68  83      	    add  a,e
0F69  83      	    add  a,e
0F6A  86      	    add  a,(hl)
0F6B  86      	    add  a,(hl)
0F6C  86      	    add  a,(hl)
0F6D  86      	    add  a,(hl)
0F6E  86      	    add  a,(hl)
0F6F  86      	    add  a,(hl)
0F70  86      	    add  a,(hl)
0F71  86      	    add  a,(hl)
0F72  81      	    add  a,c
0F73  81      	    add  a,c
0F74  84      	    add  a,h
0F75  84      	    add  a,h
0F76  84      	    add  a,h
0F77  80      	    add  a,b
0F78  84      	    add  a,h
0F79  84      	    add  a,h
0F7A  84      	    add  a,h
0F7B  80      	    add  a,b
0F7C  86      	    add  a,(hl)
0F7D  86      	    add  a,(hl)
0F7E  86      	    add  a,(hl)
0F7F  80      	    add  a,b
0F80  86      	    add  a,(hl)
0F81  86      	    add  a,(hl)
0F82  86      	    add  a,(hl)
0F83  83      	    add  a,e
0F84  83      	    add  a,e
0F85  83      	    add  a,e
0F86  83      	    add  a,e
0F87  83      	    add  a,e
0F88  83      	    add  a,e
0F89  83      	    add  a,e
0F8A  83      	    add  a,e
0F8B  81      	    add  a,c
0F8C  81      	    add  a,c
0F8D  81      	    add  a,c
0F8E  81      	    add  a,c
0F8F  81      	    add  a,c
0F90  84      	    add  a,h
0F91  84      	    add  a,h
0F92  84      	    add  a,h
0F93  80      	    add  a,b
0F94  84      	    add  a,h
0F95  84      	    add  a,h
0F96  84      	    add  a,h
0F97  80      	    add  a,b
0F98  86      	    add  a,(hl)
0F99  86      	    add  a,(hl)
0F9A  86      	    add  a,(hl)
0F9B  80      	    add  a,b
0F9C  86      	    add  a,(hl)
0F9D  86      	    add  a,(hl)
0F9E  86      	    add  a,(hl)
0F9F  83      	    add  a,e
0FA0  83      	    add  a,e
0FA1  83      	    add  a,e
0FA2  83      	    add  a,e
0FA3  83      	    add  a,e
0FA4  83      	    add  a,e
0FA5  83      	    add  a,e
0FA6  83      	    add  a,e
0FA7  81      	    add  a,c
0FA8  81      	    add  a,c
0FA9  81      	    add  a,c
0FAA  81      	    add  a,c
0FAB  81      	    add  a,c
0FAC  84      	    add  a,h
0FAD  84      	    add  a,h
0FAE  84      	    add  a,h
0FAF  80      	    add  a,b
0FB0  84      	    add  a,h
0FB1  84      	    add  a,h
0FB2  84      	    add  a,h
0FB3  80      	    add  a,b
0FB4  86      	    add  a,(hl)
0FB5  86      	    add  a,(hl)
0FB6  86      	    add  a,(hl)
0FB7  80      	    add  a,b
0FB8  86      	    add  a,(hl)
0FB9  86      	    add  a,(hl)
0FBA  86      	    add  a,(hl)
0FBB  83      	    add  a,e
0FBC  83      	    add  a,e
0FBD  83      	    add  a,e
0FBE  83      	    add  a,e
0FBF  83      	    add  a,e
0FC0  83      	    add  a,e
0FC1  83      	    add  a,e
0FC2  83      	    add  a,e
0FC3  81      	    add  a,c
0FC4  81      	    add  a,c
0FC5  81      	    add  a,c
0FC6  81      	    add  a,c
0FC7  81      	    add  a,c
0FC8  84      	    add  a,h
0FC9  84      	    add  a,h
0FCA  84      	    add  a,h
0FCB  80      	    add  a,b
0FCC  84      	    add  a,h
0FCD  84      	    add  a,h
0FCE  84      	    add  a,h
0FCF  80      	    add  a,b
0FD0  86      	    add  a,(hl)
0FD1  86      	    add  a,(hl)
0FD2  86      	    add  a,(hl)
0FD3  80      	    add  a,b
0FD4  86      	    add  a,(hl)
0FD5  86      	    add  a,(hl)
0FD6  86      	    add  a,(hl)
0FD7  83      	    add  a,e
0FD8  83      	    add  a,e
0FD9  83      	    add  a,e
0FDA  83      	    add  a,e
0FDB  83      	    add  a,e
0FDC  83      	    add  a,e
0FDD  83      	    add  a,e
0FDE  83      	    add  a,e
0FDF  81      	    add  a,c
0FE0  81      	    add  a,c
0FE1  81      	    add  a,c
0FE2  81      	    add  a,c
0FE3  81      	    add  a,c
0FE4  84      	    add  a,h
0FE5  84      	    add  a,h
0FE6  84      	    add  a,h
0FE7  80      	    add  a,b
0FE8  84      	    add  a,h
0FE9  84      	    add  a,h
0FEA  84      	    add  a,h
0FEB  80      	    add  a,b
0FEC  86      	    add  a,(hl)
0FED  86      	    add  a,(hl)
0FEE  86      	    add  a,(hl)
0FEF  80      	    add  a,b
0FF0  86      	    add  a,(hl)
0FF1  86      	    add  a,(hl)
0FF2  86      	    add  a,(hl)
0FF3  83      	    add  a,e
0FF4  83      	    add  a,e
0FF5  83      	    add  a,e
0FF6  83      	    add  a,e
0FF7  83      	    add  a,e
0FF8  83      	    add  a,e
0FF9  83      	    add  a,e
0FFA  83      	    add  a,e
0FFB  83      	    add  a,e
0FFC  83      	    add  a,e
0FFD  81      	    add  a,c
0FFE  81      	    add  a,c
0FFF  81      	    add  a,c

                ;;; ============ start of suprmous.x2 =============

1000  84      	    add  a,h
1001  84      	    add  a,h
1002  84      	    add  a,h
1003  80      	    add  a,b
1004  84      	    add  a,h
1005  84      	    add  a,h
1006  84      	    add  a,h
1007  80      	    add  a,b
1008  86      	    add  a,(hl)
1009  86      	    add  a,(hl)
100A  86      	    add  a,(hl)
100B  80      	    add  a,b
100C  86      	    add  a,(hl)
100D  86      	    add  a,(hl)
100E  86      	    add  a,(hl)

100F  3A3E80  	    ld   a,($803E)
1012  A7      	    and  a
1013  C23810  	    jp   nz,$1038
1016  3A1F84  	    ld   a,($841F)
1019  FE02    	    cp   $02
101B  CA3810  	    jp   z,$1038
101E  3A1F84  	    ld   a,($841F)
1021  FE00    	    cp   $00
1023  CA3810  	    jp   z,$1038
1026  3A8086  	    ld   a,(bomb_placed)
1029  A7      	    and  a
102A  C2ED10  	    jp   nz,$10ED
102D  328386  	    ld   ($8683),a
1030  3A7F86  	    ld   a,(bombs)
1033  A7      	    and  a
1034  C8      	    ret  z
1035  C34610  	    jp   $1046
1038  218086  	    ld   hl,bomb_placed
103B  3E00    	    ld   a,$00
103D  0610    	    ld   b,$10
103F  77      	    ld   (hl),a
1040  23      	    inc  hl
1041  10FC    	    djnz $103F
1043  C3D610  	    jp   $10D6
1046  3AC185  	    ld   a,($85C1)
1049  A7      	    and  a
104A  C0      	    ret  nz
104B  3A0184  	    ld   a,(controls)
104E  E610    	    and  $10    ; fire pressed?
1050  C8      	    ret  z
1051  CD1B25  	    call get_player_tile_pos
1054  11E2FF  	    ld   de,$FFE2
1057  19      	    add  hl,de
1058  7E      	    ld   a,(hl)
1059  FEF0    	    cp   $F0
105B  D8      	    ret  c
105C  3A7F86  	    ld   a,(bombs) ;(only here when holding a bomb
105F  A7      	    and  a
1060  C8      	    ret  z      ; out of bombs
1061  D601    	    sub  $01    ; use a bomb
1063  327F86  	    ld   (bombs),a
1066  CD6C10  	    call $106C
1069  C39E10  	    jp   $109E

                ;; drop bomb?
106C  E5      	    push hl
106D  D5      	    push de
106E  C5      	    push bc
106F  F5      	    push af
1070  21C391  	    ld   hl,$91C3
1073  3A7F86  	    ld   a,(bombs)
1076  0E06    	    ld   c,$06
1078  112000  	    ld   de,$0020
107B  A7      	    and  a
107C  CA8710  	    jp   z,$1087
107F  47      	    ld   b,a
1080  3E32    	    ld   a,$32
1082  77      	    ld   (hl),a
1083  19      	    add  hl,de
1084  0D      	    dec  c
1085  10FB    	    djnz $1082
1087  3624    	    ld   (hl),$24
1089  19      	    add  hl,de
108A  0D      	    dec  c
108B  C28710  	    jp   nz,$1087
108E  21C395  	    ld   hl,$95C3
1091  3E86    	    ld   a,$86
1093  0605    	    ld   b,$05
1095  77      	    ld   (hl),a
1096  19      	    add  hl,de
1097  10FC    	    djnz $1095
1099  F1      	    pop  af
109A  C1      	    pop  bc
109B  D1      	    pop  de
109C  E1      	    pop  hl
109D  C9      	    ret

                ;; (after?) set bomb?
109E  3E00    	    ld   a,$00
10A0  328386  	    ld   ($8683),a
10A3  328186  	    ld   ($8681),a
10A6  328286  	    ld   ($8682),a
10A9  328886  	    ld   ($8688),a
10AC  328986  	    ld   ($8689),a
10AF  328A86  	    ld   (bomb_set_timer),a
10B2  328B86  	    ld   (bomb_exploding),a
10B5  3E01    	    ld   a,$01
10B7  328086  	    ld   (bomb_placed),a
10BA  218486  	    ld   hl,bomb_x
10BD  3A0684  	    ld   a,(player_x) ; set bomb pos to player pos
10C0  77      	    ld   (hl),a
10C1  23      	    inc  hl
10C2  3A0784  	    ld   a,(player_y)
10C5  77      	    ld   (hl),a
10C6  23      	    inc  hl
10C7  3E3C    	    ld   a,$3C  ; ?
10C9  77      	    ld   (hl),a
10CA  23      	    inc  hl
10CB  3E86    	    ld   a,$86  ;
10CD  77      	    ld   (hl),a
10CE  3E85    	    ld   a,$85
10D0  3200B8  	    ld   (watchdog),a
10D3  C3D610  	    jp   $10D6
10D6  211C80  	    ld   hl,$801C
10D9  3A8486  	    ld   a,(bomb_x)
10DC  77      	    ld   (hl),a
10DD  23      	    inc  hl
10DE  3A8686  	    ld   a,(bomb_um1)
10E1  77      	    ld   (hl),a
10E2  23      	    inc  hl
10E3  3A8786  	    ld   a,(bomb_um2)
10E6  77      	    ld   (hl),a
10E7  23      	    inc  hl
10E8  3A8586  	    ld   a,(bomb_y)
10EB  77      	    ld   (hl),a
10EC  C9      	    ret

    ;;
10ED  3A8B86  	    ld   a,(bomb_exploding)
10F0  A7      	    and  a
10F1  C20D11  	    jp   nz,$110D
10F4  3A8A86  	    ld   a,(bomb_set_timer)
10F7  FE14    	    cp   $14
10F9  CA0111  	    jp   z,$1101
10FC  3C      	    inc  a      ; too soon to detonate
10FD  328A86  	    ld   (bomb_set_timer),a
1100  C9      	    ret
1101  3A0184  	    ld   a,(controls)
1104  E610    	    and  $10    ; fire pressed?
1106  C8      	    ret  z
                _detonate_bomb:
1107  3E01    	    ld   a,$01  ; yep... explode bomb
1109  328B86  	    ld   (bomb_exploding),a
110C  C9      	    ret

110D  218886  	    ld   hl,$8688
1110  34      	    inc  (hl)
1111  7E      	    ld   a,(hl)
1112  FE06    	    cp   $06
1114  D8      	    ret  c
1115  3600    	    ld   (hl),$00
1117  23      	    inc  hl
1118  34      	    inc  (hl)
1119  7E      	    ld   a,(hl)
111A  FE01    	    cp   $01
111C  CA3411  	    jp   z,$1134
111F  FE02    	    cp   $02
1121  CA4B11  	    jp   z,$114B
1124  FE05    	    cp   $05
1126  CA4E11  	    jp   z,$114E
1129  FE09    	    cp   $09
112B  CA5B11  	    jp   z,$115B
112E  FE0E    	    cp   $0E
1130  CA6811  	    jp   z,$1168
1133  C9      	    ret
1134  3E3E    	    ld   a,$3E
1136  328686  	    ld   ($8686),a
1139  3E87    	    ld   a,$87
113B  328786  	    ld   ($8687),a
113E  3E01    	    ld   a,$01
1140  328386  	    ld   ($8683),a
1143  3E88    	    ld   a,$88
1145  3200B8  	    ld   (watchdog),a
1148  C3D610  	    jp   $10D6
114B  C3D610  	    jp   $10D6
114E  3E3F    	    ld   a,$3F
1150  328686  	    ld   ($8686),a
1153  3E84    	    ld   a,$84
1155  328786  	    ld   ($8687),a
1158  C3D610  	    jp   $10D6
115B  3E3D    	    ld   a,$3D
115D  328686  	    ld   ($8686),a
1160  3E87    	    ld   a,$87
1162  328786  	    ld   ($8687),a
1165  C3D610  	    jp   $10D6
1168  C33810  	    jp   $1038
116B  00      	    nop
116C  00      	    nop
116D  3A8386  	    ld   a,($8683)
1170  A7      	    and  a
1171  C8      	    ret  z
1172  3A00B0  	    ld   a,(int_enable)
1175  E680    	    and  $80
1177  C28C11  	    jp   nz,$118C
117A  3A1F84  	    ld   a,($841F)
117D  FE01    	    cp   $01
117F  C28C11  	    jp   nz,$118C
1182  3A3E80  	    ld   a,($803E)
1185  A7      	    and  a
1186  C28C11  	    jp   nz,$118C
1189  CD9F11  	    call $119F
118C  CDD911  	    call $11D9
118F  CD0512  	    call $1205
1192  CD3112  	    call $1231
1195  CD5D12  	    call $125D
1198  CD9112  	    call $1291
119B  CDBD12  	    call $12BD
119E  C9      	    ret
119F  DD210080	    ld   ix,ram_start
11A3  FD211C80	    ld   iy,$801C
11A7  21B411  	    ld   hl,$11B4
11AA  D9      	    exx
11AB  111008  	    ld   de,$0810
11AE  211008  	    ld   hl,$0810
11B1  C3BF11  	    jp   $11BF
11B4  3E81    	    ld   a,$81
11B6  3200B8  	    ld   (watchdog),a
11B9  211F84  	    ld   hl,$841F
11BC  3602    	    ld   (hl),$02
11BE  C9      	    ret
11BF  DD7E03  	    ld   a,(ix+$03)
11C2  FD4603  	    ld   b,(iy+$03)
11C5  94      	    sub  h
11C6  B8      	    cp   b
11C7  D0      	    ret  nc
11C8  85      	    add  a,l
11C9  B8      	    cp   b
11CA  D8      	    ret  c
11CB  DD7E00  	    ld   a,(ix+$00)
11CE  FD4600  	    ld   b,(iy+$00)
11D1  92      	    sub  d
11D2  B8      	    cp   b
11D3  D0      	    ret  nc
11D4  83      	    add  a,e
11D5  B8      	    cp   b
11D6  D8      	    ret  c
11D7  D9      	    exx
11D8  E9      	    jp   (hl)
11D9  3A0185  	    ld   a,($8501)
11DC  A7      	    and  a
11DD  C8      	    ret  z
11DE  3A2B85  	    ld   a,($852B)
11E1  A7      	    and  a
11E2  C0      	    ret  nz
11E3  DD211C80	    ld   ix,$801C
11E7  FD210480	    ld   iy,$8004
11EB  21F811  	    ld   hl,$11F8
11EE  D9      	    exx
11EF  111C0E  	    ld   de,$0E1C
11F2  211C0E  	    ld   hl,$0E1C
11F5  C3BF11  	    jp   $11BF
11F8  211785  	    ld   hl,$8517
11FB  3606    	    ld   (hl),$06
11FD  212B85  	    ld   hl,$852B
1200  3601    	    ld   (hl),$01
1202  C38612  	    jp   $1286
1205  3A0385  	    ld   a,($8503)
1208  A7      	    and  a
1209  C8      	    ret  z
120A  3A4B85  	    ld   a,($854B)
120D  A7      	    and  a
120E  C0      	    ret  nz
120F  DD211C80	    ld   ix,$801C
1213  FD210880	    ld   iy,$8008
1217  212412  	    ld   hl,$1224
121A  D9      	    exx
121B  111C0E  	    ld   de,$0E1C
121E  211C0E  	    ld   hl,$0E1C
1221  C3BF11  	    jp   $11BF
1224  213785  	    ld   hl,$8537
1227  3606    	    ld   (hl),$06
1229  214B85  	    ld   hl,$854B
122C  3601    	    ld   (hl),$01
122E  C38612  	    jp   $1286
1231  3A0485  	    ld   a,($8504)
1234  A7      	    and  a
1235  C8      	    ret  z
1236  3A6B85  	    ld   a,($856B)
1239  A7      	    and  a
123A  C0      	    ret  nz
123B  DD211C80	    ld   ix,$801C
123F  FD210C80	    ld   iy,$800C
1243  215012  	    ld   hl,$1250
1246  D9      	    exx
1247  111C0E  	    ld   de,$0E1C
124A  211C0E  	    ld   hl,$0E1C
124D  C3BF11  	    jp   $11BF
1250  215785  	    ld   hl,$8557
1253  3606    	    ld   (hl),$06
1255  216B85  	    ld   hl,$856B
1258  3601    	    ld   (hl),$01
125A  C38612  	    jp   $1286
125D  3A0785  	    ld   a,($8507)
1260  A7      	    and  a
1261  C8      	    ret  z
1262  3A8B85  	    ld   a,($858B)
1265  A7      	    and  a
1266  C0      	    ret  nz
1267  DD211C80	    ld   ix,$801C
126B  FD211080	    ld   iy,$8010
126F  217C12  	    ld   hl,$127C
1272  D9      	    exx
1273  111C0E  	    ld   de,$0E1C
1276  211C0E  	    ld   hl,$0E1C
1279  C3BF11  	    jp   $11BF
127C  217785  	    ld   hl,$8577
127F  3606    	    ld   (hl),$06
1281  218B85  	    ld   hl,$858B
1284  3601    	    ld   (hl),$01
1286  3E83    	    ld   a,$83
1288  3200B8  	    ld   (watchdog),a
128B  1604    	    ld   d,$04
128D  CDF112  	    call $12F1
1290  C9      	    ret
1291  3A0186  	    ld   a,($8601)
1294  A7      	    and  a
1295  C8      	    ret  z
1296  3A2B86  	    ld   a,($862B)
1299  A7      	    and  a
129A  C0      	    ret  nz
129B  DD211C80	    ld   ix,$801C
129F  FD211480	    ld   iy,$8014
12A3  21B012  	    ld   hl,$12B0
12A6  D9      	    exx
12A7  11180C  	    ld   de,$0C18
12AA  21180C  	    ld   hl,$0C18
12AD  C3BF11  	    jp   $11BF
12B0  211786  	    ld   hl,$8617
12B3  3606    	    ld   (hl),$06
12B5  212B86  	    ld   hl,$862B
12B8  3601    	    ld   (hl),$01
12BA  C3E612  	    jp   $12E6
12BD  3A0386  	    ld   a,($8603)
12C0  A7      	    and  a
12C1  C8      	    ret  z
12C2  3A4B86  	    ld   a,($864B)
12C5  A7      	    and  a
12C6  C0      	    ret  nz
12C7  DD211C80	    ld   ix,$801C
12CB  FD211880	    ld   iy,$8018
12CF  21DC12  	    ld   hl,$12DC
12D2  D9      	    exx
12D3  11180C  	    ld   de,$0C18
12D6  21180C  	    ld   hl,$0C18
12D9  C3BF11  	    jp   $11BF
12DC  213786  	    ld   hl,$8637
12DF  3606    	    ld   (hl),$06
12E1  214B86  	    ld   hl,$864B
12E4  3601    	    ld   (hl),$01
12E6  3E82    	    ld   a,$82
12E8  3200B8  	    ld   (watchdog),a
12EB  1608    	    ld   d,$08
12ED  CDF112  	    call $12F1
12F0  C9      	    ret
12F1  AF      	    xor  a
12F2  214080  	    ld   hl,$8040
12F5  3601    	    ld   (hl),$01
12F7  0E00    	    ld   c,$00
12F9  1E00    	    ld   e,$00
12FB  23      	    inc  hl
12FC  79      	    ld   a,c
12FD  8E      	    adc  a,(hl)
12FE  27      	    daa
12FF  77      	    ld   (hl),a
1300  23      	    inc  hl
1301  7A      	    ld   a,d
1302  8E      	    adc  a,(hl)
1303  27      	    daa
1304  77      	    ld   (hl),a
1305  23      	    inc  hl
1306  7B      	    ld   a,e
1307  8E      	    adc  a,(hl)
1308  27      	    daa
1309  77      	    ld   (hl),a
130A  C9      	    ret


130B  3A0181  	    ld   a,($8101)
130E  E603    	    and  $03
1310  CA2213  	    jp   z,$1322
1313  FE01    	    cp   $01
1315  CA2B13  	    jp   z,$132B
1318  FE02    	    cp   $02
131A  CA3413  	    jp   z,$1334
131D  FE03    	    cp   $03
131F  CA3D13  	    jp   z,$133D
1322  3E83    	    ld   a,$83
1324  119113  	    ld   de,very_chunk_data_1
1327  CD4613  	    call $1346
132A  C9      	    ret
132B  3E83    	    ld   a,$83
132D  11A116  	    ld   de,$16A1
1330  CD4613  	    call $1346
1333  C9      	    ret
1334  3E83    	    ld   a,$83
1336  11B119  	    ld   de,$19B1
1339  CD4613  	    call $1346
133C  C9      	    ret
133D  3E83    	    ld   a,$83
133F  11C11C  	    ld   de,$1CC1
1342  CD4613  	    call $1346
1345  C9      	    ret


1346  214390  	    ld   hl,$9043
1349  061C    	    ld   b,$1C
134B  0E1C    	    ld   c,$1C
134D  08      	    ex   af,af'
134E  CD6013  	    call $1360
1351  08      	    ex   af,af'
1352  112000  	    ld   de,$0020
1355  214394  	    ld   hl,$9443
1358  061C    	    ld   b,$1C
135A  0E1C    	    ld   c,$1C
135C  CD8413  	    call $1384
135F  C9      	    ret

1360  C5      	    push bc
1361  E5      	    push hl
1362  1A      	    ld   a,(de)
1363  77      	    ld   (hl),a
1364  23      	    inc  hl
1365  13      	    inc  de
1366  10FA    	    djnz $1362
1368  E1      	    pop  hl
1369  012000  	    ld   bc,$0020
136C  09      	    add  hl,bc
136D  C1      	    pop  bc
136E  0D      	    dec  c
136F  20EF    	    jr   nz,$1360
1371  C9      	    ret

1372  C5      	    push bc
1373  E5      	    push hl
1374  1A      	    ld   a,(de)
1375  77      	    ld   (hl),a
1376  13      	    inc  de
1377  23      	    inc  hl
1378  10FA    	    djnz $1374
137A  E1      	    pop  hl
137B  01E0FF  	    ld   bc,$FFE0
137E  09      	    add  hl,bc
137F  C1      	    pop  bc
1380  0D      	    dec  c
1381  20EF    	    jr   nz,$1372
1383  C9      	    ret
1384  C5      	    push bc
1385  E5      	    push hl
1386  77      	    ld   (hl),a
1387  23      	    inc  hl
1388  10FC    	    djnz $1386
138A  E1      	    pop  hl
138B  19      	    add  hl,de
138C  C1      	    pop  bc
138D  0D      	    dec  c
138E  20F4    	    jr   nz,$1384
1390  C9      	    ret

                ;; very chunky data
                very_chunk_data_1:
1391  25      	    dec  h
1392  25      	    dec  h
1393  25      	    dec  h
1394  25      	    dec  h
1395  25      	    dec  h
1396  25      	    dec  h
1397  25      	    dec  h
1398  25      	    dec  h
1399  25      	    dec  h
139A  25      	    dec  h
139B  25      	    dec  h
139C  25      	    dec  h
139D  25      	    dec  h
139E  25      	    dec  h
139F  25      	    dec  h
13A0  25      	    dec  h
13A1  25      	    dec  h
13A2  25      	    dec  h
13A3  25      	    dec  h
13A4  25      	    dec  h
13A5  25      	    dec  h
13A6  25      	    dec  h
13A7  25      	    dec  h
13A8  25      	    dec  h
13A9  25      	    dec  h
13AA  25      	    dec  h
13AB  25      	    dec  h
13AC  25      	    dec  h
13AD  25      	    dec  h
13AE  25      	    dec  h
13AF  25      	    dec  h
13B0  25      	    dec  h
13B1  25      	    dec  h
13B2  25      	    dec  h
13B3  25      	    dec  h
13B4  25      	    dec  h
13B5  25      	    dec  h
13B6  25      	    dec  h
13B7  25      	    dec  h
13B8  25      	    dec  h
13B9  25      	    dec  h
13BA  25      	    dec  h
13BB  25      	    dec  h
13BC  25      	    dec  h
13BD  25      	    dec  h
13BE  25      	    dec  h
13BF  25      	    dec  h
13C0  25      	    dec  h
13C1  25      	    dec  h
13C2  25      	    dec  h
13C3  25      	    dec  h
13C4  25      	    dec  h
13C5  25      	    dec  h
13C6  25      	    dec  h
13C7  25      	    dec  h
13C8  25      	    dec  h
13C9  25      	    dec  h
13CA  25      	    dec  h
13CB  25      	    dec  h
13CC  F5      	    push af
13CD  F5      	    push af
13CE  F5      	    push af
13CF  F5      	    push af
13D0  F5      	    push af
13D1  F5      	    push af
13D2  F5      	    push af
13D3  F5      	    push af
13D4  F5      	    push af
13D5  F5      	    push af
13D6  F5      	    push af
13D7  F5      	    push af
13D8  F5      	    push af
13D9  F5      	    push af
13DA  F5      	    push af
13DB  F5      	    push af
13DC  F5      	    push af
13DD  F5      	    push af
13DE  F5      	    push af
13DF  F5      	    push af
13E0  F5      	    push af
13E1  F5      	    push af
13E2  F5      	    push af
13E3  F5      	    push af
13E4  F42525  	    call p,$2525
13E7  25      	    dec  h
13E8  F42525  	    call p,$2525
13EB  25      	    dec  h
13EC  F42525  	    call p,$2525
13EF  25      	    dec  h
13F0  25      	    dec  h
13F1  25      	    dec  h
13F2  25      	    dec  h
13F3  25      	    dec  h
13F4  F42525  	    call p,$2525
13F7  25      	    dec  h
13F8  25      	    dec  h
13F9  25      	    dec  h
13FA  25      	    dec  h
13FB  25      	    dec  h
13FC  F42525  	    call p,$2525
13FF  25      	    dec  h
1400  F42525  	    call p,$2525
1403  25      	    dec  h
1404  F42525  	    call p,$2525
1407  25      	    dec  h
1408  F42525  	    call p,$2525
140B  25      	    dec  h
140C  25      	    dec  h
140D  25      	    dec  h
140E  25      	    dec  h
140F  25      	    dec  h
1410  F42525  	    call p,$2525
1413  25      	    dec  h
1414  25      	    dec  h
1415  25      	    dec  h
1416  25      	    dec  h
1417  25      	    dec  h
1418  F42525  	    call p,$2525
141B  25      	    dec  h
141C  F42525  	    call p,$2525
141F  25      	    dec  h
1420  F42525  	    call p,$2525
1423  25      	    dec  h
1424  F42525  	    call p,$2525
1427  25      	    dec  h
1428  25      	    dec  h
1429  25      	    dec  h
142A  25      	    dec  h
142B  25      	    dec  h
142C  F42525  	    call p,$2525
142F  25      	    dec  h
1430  25      	    dec  h
1431  25      	    dec  h
1432  25      	    dec  h
1433  25      	    dec  h
1434  F42525  	    call p,$2525
1437  25      	    dec  h
1438  F42525  	    call p,$2525
143B  25      	    dec  h
143C  F5      	    push af
143D  F5      	    push af
143E  F5      	    push af
143F  F5      	    push af
1440  F43535  	    call p,$3535
1443  35      	    dec  (hl)
1444  35      	    dec  (hl)
1445  25      	    dec  h
1446  25      	    dec  h
1447  25      	    dec  h
1448  F43535  	    call p,$3535
144B  35      	    dec  (hl)
144C  35      	    dec  (hl)
144D  25      	    dec  h
144E  25      	    dec  h
144F  25      	    dec  h
1450  F5      	    push af
1451  F5      	    push af
1452  F5      	    push af
1453  F5      	    push af
1454  F42525  	    call p,$2525
1457  25      	    dec  h
1458  F42525  	    call p,$2525
145B  25      	    dec  h
145C  F625    	    or   $25
145E  37      	    scf
145F  3835    	    jr   c,$1496
1461  25      	    dec  h
1462  25      	    dec  h
1463  25      	    dec  h
1464  F625    	    or   $25
1466  37      	    scf
1467  3835    	    jr   c,$149E
1469  25      	    dec  h
146A  25      	    dec  h
146B  25      	    dec  h
146C  F42525  	    call p,$2525
146F  25      	    dec  h
1470  25      	    dec  h
1471  25      	    dec  h
1472  25      	    dec  h
1473  25      	    dec  h
1474  F42525  	    call p,$2525
1477  25      	    dec  h
1478  FC2537  	    call m,$3725
147B  3835    	    jr   c,$14B2
147D  25      	    dec  h
147E  25      	    dec  h
147F  25      	    dec  h
1480  FC2537  	    call m,$3725
1483  3835    	    jr   c,$14BA
1485  25      	    dec  h
1486  25      	    dec  h
1487  25      	    dec  h
1488  F42525  	    call p,$2525
148B  25      	    dec  h
148C  25      	    dec  h
148D  25      	    dec  h
148E  25      	    dec  h
148F  25      	    dec  h
1490  F42525  	    call p,$2525
1493  25      	    dec  h
1494  F625    	    or   $25
1496  37      	    scf
1497  3835    	    jr   c,$14CE
1499  25      	    dec  h
149A  25      	    dec  h
149B  25      	    dec  h
149C  F625    	    or   $25
149E  37      	    scf
149F  3835    	    jr   c,$14D6
14A1  25      	    dec  h
14A2  25      	    dec  h
14A3  25      	    dec  h
14A4  F42525  	    call p,$2525
14A7  25      	    dec  h
14A8  25      	    dec  h
14A9  25      	    dec  h
14AA  25      	    dec  h
14AB  25      	    dec  h
14AC  F5      	    push af
14AD  F5      	    push af
14AE  F5      	    push af
14AF  F5      	    push af
14B0  F43535  	    call p,$3535
14B3  35      	    dec  (hl)
14B4  35      	    dec  (hl)
14B5  25      	    dec  h
14B6  25      	    dec  h
14B7  25      	    dec  h
14B8  F43535  	    call p,$3535
14BB  35      	    dec  (hl)
14BC  35      	    dec  (hl)
14BD  25      	    dec  h
14BE  25      	    dec  h
14BF  25      	    dec  h
14C0  F43636  	    call p,$3636
14C3  3636    	    ld   (hl),$36
14C5  25      	    dec  h
14C6  25      	    dec  h
14C7  25      	    dec  h
14C8  25      	    dec  h
14C9  25      	    dec  h
14CA  25      	    dec  h
14CB  25      	    dec  h
14CC  F42525  	    call p,$2525
14CF  25      	    dec  h
14D0  25      	    dec  h
14D1  25      	    dec  h
14D2  25      	    dec  h
14D3  25      	    dec  h
14D4  F42525  	    call p,$2525
14D7  25      	    dec  h
14D8  25      	    dec  h
14D9  25      	    dec  h
14DA  25      	    dec  h
14DB  25      	    dec  h
14DC  F42525  	    call p,$2525
14DF  25      	    dec  h
14E0  3625    	    ld   (hl),$25
14E2  25      	    dec  h
14E3  25      	    dec  h
14E4  25      	    dec  h
14E5  25      	    dec  h
14E6  25      	    dec  h
14E7  25      	    dec  h
14E8  F42525  	    call p,$2525
14EB  25      	    dec  h
14EC  25      	    dec  h
14ED  25      	    dec  h
14EE  25      	    dec  h
14EF  25      	    dec  h
14F0  F42525  	    call p,$2525
14F3  25      	    dec  h
14F4  25      	    dec  h
14F5  25      	    dec  h
14F6  25      	    dec  h
14F7  25      	    dec  h
14F8  F9      	    ld   sp,hl
14F9  25      	    dec  h
14FA  25      	    dec  h
14FB  25      	    dec  h
14FC  3625    	    ld   (hl),$25
14FE  25      	    dec  h
14FF  25      	    dec  h
1500  25      	    dec  h
1501  25      	    dec  h
1502  25      	    dec  h
1503  25      	    dec  h
1504  F42525  	    call p,$2525
1507  25      	    dec  h
1508  25      	    dec  h
1509  25      	    dec  h
150A  25      	    dec  h
150B  25      	    dec  h
150C  F42525  	    call p,$2525
150F  25      	    dec  h
1510  25      	    dec  h
1511  25      	    dec  h
1512  25      	    dec  h
1513  25      	    dec  h
1514  F42525  	    call p,$2525
1517  25      	    dec  h
1518  3625    	    ld   (hl),$25
151A  25      	    dec  h
151B  25      	    dec  h
151C  25      	    dec  h
151D  25      	    dec  h
151E  25      	    dec  h
151F  25      	    dec  h
1520  F5      	    push af
1521  F5      	    push af
1522  F5      	    push af
1523  F5      	    push af
1524  F5      	    push af
1525  F5      	    push af
1526  F5      	    push af
1527  F5      	    push af
1528  F5      	    push af
1529  F5      	    push af
152A  F5      	    push af
152B  F5      	    push af
152C  F5      	    push af
152D  F5      	    push af
152E  F5      	    push af
152F  F5      	    push af
1530  F43636  	    call p,$3636
1533  3636    	    ld   (hl),$36
1535  25      	    dec  h
1536  25      	    dec  h
1537  25      	    dec  h
1538  FD25    	    dec  iyh
153A  25      	    dec  h
153B  25      	    dec  h
153C  F42525  	    call p,$2525
153F  25      	    dec  h
1540  25      	    dec  h
1541  25      	    dec  h
1542  25      	    dec  h
1543  25      	    dec  h
1544  F42525  	    call p,$2525
1547  25      	    dec  h
1548  F42525  	    call p,$2525
154B  25      	    dec  h
154C  F42525  	    call p,$2525
154F  25      	    dec  h
1550  25      	    dec  h
1551  25      	    dec  h
1552  25      	    dec  h
1553  25      	    dec  h
1554  FF      	    rst  $38
1555  25      	    dec  h
1556  25      	    dec  h
1557  25      	    dec  h
1558  F42525  	    call p,$2525
155B  25      	    dec  h
155C  25      	    dec  h
155D  25      	    dec  h
155E  25      	    dec  h
155F  25      	    dec  h
1560  F42525  	    call p,$2525
1563  25      	    dec  h
1564  F42525  	    call p,$2525
1567  25      	    dec  h
1568  F42525  	    call p,$2525
156B  25      	    dec  h
156C  25      	    dec  h
156D  25      	    dec  h
156E  25      	    dec  h
156F  25      	    dec  h
1570  FD25    	    dec  iyh
1572  25      	    dec  h
1573  25      	    dec  h
1574  F42525  	    call p,$2525
1577  25      	    dec  h
1578  25      	    dec  h
1579  25      	    dec  h
157A  25      	    dec  h
157B  25      	    dec  h
157C  F42525  	    call p,$2525
157F  25      	    dec  h
1580  F42525  	    call p,$2525
1583  25      	    dec  h
1584  F42525  	    call p,$2525
1587  25      	    dec  h
1588  25      	    dec  h
1589  25      	    dec  h
158A  25      	    dec  h
158B  25      	    dec  h
158C  F5      	    push af
158D  F5      	    push af
158E  F5      	    push af
158F  F5      	    push af
1590  F43535  	    call p,$3535
1593  35      	    dec  (hl)
1594  35      	    dec  (hl)
1595  25      	    dec  h
1596  25      	    dec  h
1597  25      	    dec  h
1598  F5      	    push af
1599  F5      	    push af
159A  F5      	    push af
159B  F5      	    push af
159C  F5      	    push af
159D  F5      	    push af
159E  F5      	    push af
159F  F5      	    push af
15A0  F5      	    push af
15A1  F5      	    push af
15A2  F5      	    push af
15A3  F5      	    push af
15A4  F42525  	    call p,$2525
15A7  25      	    dec  h
15A8  F42525  	    call p,$2525
15AB  25      	    dec  h
15AC  F625    	    or   $25
15AE  37      	    scf
15AF  3835    	    jr   c,$15E6
15B1  25      	    dec  h
15B2  25      	    dec  h
15B3  25      	    dec  h
15B4  F42525  	    call p,$2525
15B7  25      	    dec  h
15B8  FD25    	    dec  iyh
15BA  25      	    dec  h
15BB  25      	    dec  h
15BC  F42525  	    call p,$2525
15BF  25      	    dec  h
15C0  F42525  	    call p,$2525
15C3  25      	    dec  h
15C4  F42525  	    call p,$2525
15C7  25      	    dec  h
15C8  FC2537  	    call m,$3725
15CB  3835    	    jr   c,$1602
15CD  25      	    dec  h
15CE  25      	    dec  h
15CF  25      	    dec  h
15D0  F42525  	    call p,$2525
15D3  25      	    dec  h
15D4  FF      	    rst  $38
15D5  25      	    dec  h
15D6  25      	    dec  h
15D7  25      	    dec  h
15D8  F42525  	    call p,$2525
15DB  25      	    dec  h
15DC  F42525  	    call p,$2525
15DF  25      	    dec  h
15E0  F42525  	    call p,$2525
15E3  25      	    dec  h
15E4  F625    	    or   $25
15E6  37      	    scf
15E7  3835    	    jr   c,$161E
15E9  25      	    dec  h
15EA  25      	    dec  h
15EB  25      	    dec  h
15EC  F42525  	    call p,$2525
15EF  25      	    dec  h
15F0  FD25    	    dec  iyh
15F2  25      	    dec  h
15F3  25      	    dec  h
15F4  F42525  	    call p,$2525
15F7  25      	    dec  h
15F8  F42525  	    call p,$2525
15FB  25      	    dec  h
15FC  F5      	    push af
15FD  F5      	    push af
15FE  F5      	    push af
15FF  F5      	    push af
1600  F43535  	    call p,$3535
1603  35      	    dec  (hl)
1604  35      	    dec  (hl)
1605  25      	    dec  h
1606  25      	    dec  h
1607  25      	    dec  h
1608  F42525  	    call p,$2525
160B  25      	    dec  h
160C  25      	    dec  h
160D  25      	    dec  h
160E  25      	    dec  h
160F  25      	    dec  h
1610  F5      	    push af
1611  F5      	    push af
1612  F5      	    push af
1613  F5      	    push af
1614  F42525  	    call p,$2525
1617  25      	    dec  h
1618  F42525  	    call p,$2525
161B  25      	    dec  h
161C  F42525  	    call p,$2525
161F  25      	    dec  h
1620  25      	    dec  h
1621  25      	    dec  h
1622  25      	    dec  h
1623  25      	    dec  h
1624  F42525  	    call p,$2525
1627  25      	    dec  h
1628  25      	    dec  h
1629  25      	    dec  h
162A  25      	    dec  h
162B  25      	    dec  h
162C  F42525  	    call p,$2525
162F  25      	    dec  h
1630  F42525  	    call p,$2525
1633  25      	    dec  h
1634  F42525  	    call p,$2525
1637  25      	    dec  h
1638  F42525  	    call p,$2525
163B  25      	    dec  h
163C  25      	    dec  h
163D  25      	    dec  h
163E  25      	    dec  h
163F  25      	    dec  h
1640  F42525  	    call p,$2525
1643  25      	    dec  h
1644  25      	    dec  h
1645  25      	    dec  h
1646  25      	    dec  h
1647  25      	    dec  h
1648  F42525  	    call p,$2525
164B  25      	    dec  h
164C  F42525  	    call p,$2525
164F  25      	    dec  h
1650  F42525  	    call p,$2525
1653  25      	    dec  h
1654  F42525  	    call p,$2525
1657  25      	    dec  h
1658  25      	    dec  h
1659  25      	    dec  h
165A  25      	    dec  h
165B  25      	    dec  h
165C  F42525  	    call p,$2525
165F  25      	    dec  h
1660  25      	    dec  h
1661  25      	    dec  h
1662  25      	    dec  h
1663  25      	    dec  h
1664  F42525  	    call p,$2525
1667  25      	    dec  h
1668  F42525  	    call p,$2525
166B  25      	    dec  h
166C  F5      	    push af
166D  F5      	    push af
166E  F5      	    push af
166F  F5      	    push af
1670  F5      	    push af
1671  F5      	    push af
1672  F5      	    push af
1673  F5      	    push af
1674  F5      	    push af
1675  F5      	    push af
1676  F5      	    push af
1677  F5      	    push af
1678  F5      	    push af
1679  F5      	    push af
167A  F5      	    push af
167B  F5      	    push af
167C  F5      	    push af
167D  F5      	    push af
167E  F5      	    push af
167F  F5      	    push af
1680  F5      	    push af
1681  F5      	    push af
1682  F5      	    push af
1683  F5      	    push af
1684  F42525  	    call p,$2525
1687  25      	    dec  h
1688  25      	    dec  h
1689  25      	    dec  h
168A  25      	    dec  h
168B  25      	    dec  h
168C  25      	    dec  h
168D  25      	    dec  h
168E  25      	    dec  h
168F  25      	    dec  h
1690  25      	    dec  h
1691  25      	    dec  h
1692  25      	    dec  h
1693  25      	    dec  h
1694  25      	    dec  h
1695  25      	    dec  h
1696  25      	    dec  h
1697  25      	    dec  h
1698  25      	    dec  h
1699  25      	    dec  h
169A  25      	    dec  h
169B  25      	    dec  h
169C  25      	    dec  h
169D  25      	    dec  h
169E  25      	    dec  h
169F  25      	    dec  h
16A0  25      	    dec  h
16A1  25      	    dec  h
16A2  25      	    dec  h
16A3  25      	    dec  h
16A4  25      	    dec  h
16A5  25      	    dec  h
16A6  25      	    dec  h
16A7  25      	    dec  h
16A8  25      	    dec  h
16A9  25      	    dec  h
16AA  25      	    dec  h
16AB  25      	    dec  h
16AC  25      	    dec  h
16AD  25      	    dec  h
16AE  25      	    dec  h
16AF  25      	    dec  h
16B0  25      	    dec  h
16B1  25      	    dec  h
16B2  25      	    dec  h
16B3  25      	    dec  h
16B4  25      	    dec  h
16B5  25      	    dec  h
16B6  25      	    dec  h
16B7  25      	    dec  h
16B8  25      	    dec  h
16B9  25      	    dec  h
16BA  25      	    dec  h
16BB  25      	    dec  h
16BC  25      	    dec  h
16BD  25      	    dec  h
16BE  25      	    dec  h
16BF  25      	    dec  h
16C0  25      	    dec  h
16C1  25      	    dec  h
16C2  25      	    dec  h
16C3  25      	    dec  h
16C4  25      	    dec  h
16C5  25      	    dec  h
16C6  25      	    dec  h
16C7  25      	    dec  h
16C8  25      	    dec  h
16C9  25      	    dec  h
16CA  25      	    dec  h
16CB  25      	    dec  h
16CC  25      	    dec  h
16CD  25      	    dec  h
16CE  25      	    dec  h
16CF  25      	    dec  h
16D0  25      	    dec  h
16D1  25      	    dec  h
16D2  25      	    dec  h
16D3  25      	    dec  h
16D4  25      	    dec  h
16D5  25      	    dec  h
16D6  25      	    dec  h
16D7  25      	    dec  h
16D8  25      	    dec  h
16D9  25      	    dec  h
16DA  25      	    dec  h
16DB  25      	    dec  h
16DC  F5      	    push af
16DD  F5      	    push af
16DE  F5      	    push af
16DF  F5      	    push af
16E0  F42525  	    call p,$2525
16E3  25      	    dec  h
16E4  F5      	    push af
16E5  F5      	    push af
16E6  F5      	    push af
16E7  F5      	    push af
16E8  F5      	    push af
16E9  F5      	    push af
16EA  F5      	    push af
16EB  F5      	    push af
16EC  F5      	    push af
16ED  F5      	    push af
16EE  F5      	    push af
16EF  F5      	    push af
16F0  F5      	    push af
16F1  F5      	    push af
16F2  F5      	    push af
16F3  F5      	    push af
16F4  F42525  	    call p,$2525
16F7  25      	    dec  h
16F8  F42525  	    call p,$2525
16FB  25      	    dec  h
16FC  F42525  	    call p,$2525
16FF  25      	    dec  h
1700  F42525  	    call p,$2525
1703  25      	    dec  h
1704  25      	    dec  h
1705  25      	    dec  h
1706  25      	    dec  h
1707  25      	    dec  h
1708  FD25    	    dec  iyh
170A  25      	    dec  h
170B  25      	    dec  h
170C  F42525  	    call p,$2525
170F  25      	    dec  h
1710  F42525  	    call p,$2525
1713  25      	    dec  h
1714  F42525  	    call p,$2525
1717  25      	    dec  h
1718  F42525  	    call p,$2525
171B  25      	    dec  h
171C  F42525  	    call p,$2525
171F  25      	    dec  h
1720  25      	    dec  h
1721  25      	    dec  h
1722  25      	    dec  h
1723  25      	    dec  h
1724  FF      	    rst  $38
1725  25      	    dec  h
1726  25      	    dec  h
1727  25      	    dec  h
1728  F42525  	    call p,$2525
172B  25      	    dec  h
172C  F42525  	    call p,$2525
172F  25      	    dec  h
1730  F42525  	    call p,$2525
1733  25      	    dec  h
1734  F42525  	    call p,$2525
1737  25      	    dec  h
1738  F42525  	    call p,$2525
173B  25      	    dec  h
173C  25      	    dec  h
173D  25      	    dec  h
173E  25      	    dec  h
173F  25      	    dec  h
1740  FD25    	    dec  iyh
1742  25      	    dec  h
1743  25      	    dec  h
1744  F42525  	    call p,$2525
1747  25      	    dec  h
1748  F42525  	    call p,$2525
174B  25      	    dec  h
174C  F5      	    push af
174D  F5      	    push af
174E  F5      	    push af
174F  F5      	    push af
1750  F5      	    push af
1751  F5      	    push af
1752  F5      	    push af
1753  F5      	    push af
1754  F43535  	    call p,$3535
1757  35      	    dec  (hl)
1758  35      	    dec  (hl)
1759  25      	    dec  h
175A  25      	    dec  h
175B  25      	    dec  h
175C  25      	    dec  h
175D  25      	    dec  h
175E  25      	    dec  h
175F  25      	    dec  h
1760  F5      	    push af
1761  F5      	    push af
1762  F5      	    push af
1763  F5      	    push af
1764  F42525  	    call p,$2525
1767  25      	    dec  h
1768  25      	    dec  h
1769  25      	    dec  h
176A  25      	    dec  h
176B  25      	    dec  h
176C  F42525  	    call p,$2525
176F  25      	    dec  h
1770  F625    	    or   $25
1772  37      	    scf
1773  3835    	    jr   c,$17AA
1775  25      	    dec  h
1776  25      	    dec  h
1777  25      	    dec  h
1778  25      	    dec  h
1779  25      	    dec  h
177A  25      	    dec  h
177B  25      	    dec  h
177C  F42525  	    call p,$2525
177F  25      	    dec  h
1780  25      	    dec  h
1781  25      	    dec  h
1782  25      	    dec  h
1783  25      	    dec  h
1784  25      	    dec  h
1785  25      	    dec  h
1786  25      	    dec  h
1787  25      	    dec  h
1788  F42525  	    call p,$2525
178B  25      	    dec  h
178C  FC2537  	    call m,$3725
178F  3835    	    jr   c,$17C6
1791  25      	    dec  h
1792  25      	    dec  h
1793  25      	    dec  h
1794  25      	    dec  h
1795  25      	    dec  h
1796  25      	    dec  h
1797  25      	    dec  h
1798  F42525  	    call p,$2525
179B  25      	    dec  h
179C  25      	    dec  h
179D  25      	    dec  h
179E  25      	    dec  h
179F  25      	    dec  h
17A0  25      	    dec  h
17A1  25      	    dec  h
17A2  25      	    dec  h
17A3  25      	    dec  h
17A4  F42525  	    call p,$2525
17A7  25      	    dec  h
17A8  F625    	    or   $25
17AA  37      	    scf
17AB  3835    	    jr   c,$17E2
17AD  25      	    dec  h
17AE  25      	    dec  h
17AF  25      	    dec  h
17B0  25      	    dec  h
17B1  25      	    dec  h
17B2  25      	    dec  h
17B3  25      	    dec  h
17B4  F42525  	    call p,$2525
17B7  25      	    dec  h
17B8  25      	    dec  h
17B9  25      	    dec  h
17BA  25      	    dec  h
17BB  25      	    dec  h
17BC  25      	    dec  h
17BD  25      	    dec  h
17BE  25      	    dec  h
17BF  25      	    dec  h
17C0  F5      	    push af
17C1  F5      	    push af
17C2  F5      	    push af
17C3  F5      	    push af
17C4  F43535  	    call p,$3535
17C7  35      	    dec  (hl)
17C8  35      	    dec  (hl)
17C9  25      	    dec  h
17CA  25      	    dec  h
17CB  25      	    dec  h
17CC  F5      	    push af
17CD  F5      	    push af
17CE  F5      	    push af
17CF  F5      	    push af
17D0  F43636  	    call p,$3636
17D3  3636    	    ld   (hl),$36
17D5  25      	    dec  h
17D6  25      	    dec  h
17D7  25      	    dec  h
17D8  FD25    	    dec  iyh
17DA  25      	    dec  h
17DB  25      	    dec  h
17DC  F42525  	    call p,$2525
17DF  25      	    dec  h
17E0  F42525  	    call p,$2525
17E3  25      	    dec  h
17E4  25      	    dec  h
17E5  25      	    dec  h
17E6  25      	    dec  h
17E7  25      	    dec  h
17E8  F42525  	    call p,$2525
17EB  25      	    dec  h
17EC  F42525  	    call p,$2525
17EF  25      	    dec  h
17F0  3625    	    ld   (hl),$25
17F2  25      	    dec  h
17F3  25      	    dec  h
17F4  FF      	    rst  $38
17F5  25      	    dec  h
17F6  25      	    dec  h
17F7  25      	    dec  h
17F8  F42525  	    call p,$2525
17FB  25      	    dec  h
17FC  F42525  	    call p,$2525
17FF  25      	    dec  h
1800  25      	    dec  h
1801  25      	    dec  h
1802  25      	    dec  h
1803  25      	    dec  h
1804  F42525  	    call p,$2525
1807  25      	    dec  h
1808  F9      	    ld   sp,hl
1809  25      	    dec  h
180A  25      	    dec  h
180B  25      	    dec  h
180C  3625    	    ld   (hl),$25
180E  25      	    dec  h
180F  25      	    dec  h
1810  FD25    	    dec  iyh
1812  25      	    dec  h
1813  25      	    dec  h
1814  F42525  	    call p,$2525
1817  25      	    dec  h
1818  F42525  	    call p,$2525
181B  25      	    dec  h
181C  25      	    dec  h
181D  25      	    dec  h
181E  25      	    dec  h
181F  25      	    dec  h
1820  F42525  	    call p,$2525
1823  25      	    dec  h
1824  F42525  	    call p,$2525
1827  25      	    dec  h
1828  3625    	    ld   (hl),$25
182A  25      	    dec  h
182B  25      	    dec  h
182C  F5      	    push af
182D  F5      	    push af
182E  F5      	    push af
182F  F5      	    push af
1830  F5      	    push af
1831  F5      	    push af
1832  F5      	    push af
1833  F5      	    push af
1834  F5      	    push af
1835  F5      	    push af
1836  F5      	    push af
1837  F5      	    push af
1838  F5      	    push af
1839  F5      	    push af
183A  F5      	    push af
183B  F5      	    push af
183C  F5      	    push af
183D  F5      	    push af
183E  F5      	    push af
183F  F5      	    push af
1840  F43636  	    call p,$3636
1843  3636    	    ld   (hl),$36
1845  25      	    dec  h
1846  25      	    dec  h
1847  25      	    dec  h
1848  F42525  	    call p,$2525
184B  25      	    dec  h
184C  F42525  	    call p,$2525
184F  25      	    dec  h
1850  25      	    dec  h
1851  25      	    dec  h
1852  25      	    dec  h
1853  25      	    dec  h
1854  F42525  	    call p,$2525
1857  25      	    dec  h
1858  25      	    dec  h
1859  25      	    dec  h
185A  25      	    dec  h
185B  25      	    dec  h
185C  F42525  	    call p,$2525
185F  25      	    dec  h
1860  25      	    dec  h
1861  25      	    dec  h
1862  25      	    dec  h
1863  25      	    dec  h
1864  F42525  	    call p,$2525
1867  25      	    dec  h
1868  F42525  	    call p,$2525
186B  25      	    dec  h
186C  25      	    dec  h
186D  25      	    dec  h
186E  25      	    dec  h
186F  25      	    dec  h
1870  F42525  	    call p,$2525
1873  25      	    dec  h
1874  25      	    dec  h
1875  25      	    dec  h
1876  25      	    dec  h
1877  25      	    dec  h
1878  F42525  	    call p,$2525
187B  25      	    dec  h
187C  25      	    dec  h
187D  25      	    dec  h
187E  25      	    dec  h
187F  25      	    dec  h
1880  F42525  	    call p,$2525
1883  25      	    dec  h
1884  F42525  	    call p,$2525
1887  25      	    dec  h
1888  25      	    dec  h
1889  25      	    dec  h
188A  25      	    dec  h
188B  25      	    dec  h
188C  F42525  	    call p,$2525
188F  25      	    dec  h
1890  25      	    dec  h
1891  25      	    dec  h
1892  25      	    dec  h
1893  25      	    dec  h
1894  F42525  	    call p,$2525
1897  25      	    dec  h
1898  25      	    dec  h
1899  25      	    dec  h
189A  25      	    dec  h
189B  25      	    dec  h
189C  F5      	    push af
189D  F5      	    push af
189E  F5      	    push af
189F  F5      	    push af
18A0  F43535  	    call p,$3535
18A3  35      	    dec  (hl)
18A4  35      	    dec  (hl)
18A5  25      	    dec  h
18A6  25      	    dec  h
18A7  25      	    dec  h
18A8  F43535  	    call p,$3535
18AB  35      	    dec  (hl)
18AC  35      	    dec  (hl)
18AD  25      	    dec  h
18AE  25      	    dec  h
18AF  25      	    dec  h
18B0  F5      	    push af
18B1  F5      	    push af
18B2  F5      	    push af
18B3  F5      	    push af
18B4  F42525  	    call p,$2525
18B7  25      	    dec  h
18B8  F42525  	    call p,$2525
18BB  25      	    dec  h
18BC  F625    	    or   $25
18BE  37      	    scf
18BF  3835    	    jr   c,$18F6
18C1  25      	    dec  h
18C2  25      	    dec  h
18C3  25      	    dec  h
18C4  F625    	    or   $25
18C6  37      	    scf
18C7  3835    	    jr   c,$18FE
18C9  25      	    dec  h
18CA  25      	    dec  h
18CB  25      	    dec  h
18CC  F42525  	    call p,$2525
18CF  25      	    dec  h
18D0  F42525  	    call p,$2525
18D3  25      	    dec  h
18D4  F42525  	    call p,$2525
18D7  25      	    dec  h
18D8  FC2537  	    call m,$3725
18DB  3835    	    jr   c,$1912
18DD  25      	    dec  h
18DE  25      	    dec  h
18DF  25      	    dec  h
18E0  FC2537  	    call m,$3725
18E3  3835    	    jr   c,$191A
18E5  25      	    dec  h
18E6  25      	    dec  h
18E7  25      	    dec  h
18E8  F42525  	    call p,$2525
18EB  25      	    dec  h
18EC  F42525  	    call p,$2525
18EF  25      	    dec  h
18F0  F42525  	    call p,$2525
18F3  25      	    dec  h
18F4  F625    	    or   $25
18F6  37      	    scf
18F7  3835    	    jr   c,$192E
18F9  25      	    dec  h
18FA  25      	    dec  h
18FB  25      	    dec  h
18FC  F625    	    or   $25
18FE  37      	    scf
18FF  3835    	    jr   c,$1936
1901  25      	    dec  h
1902  25      	    dec  h
1903  25      	    dec  h
1904  F42525  	    call p,$2525
1907  25      	    dec  h
1908  F42525  	    call p,$2525
190B  25      	    dec  h
190C  F5      	    push af
190D  F5      	    push af
190E  F5      	    push af
190F  F5      	    push af
1910  F43535  	    call p,$3535
1913  35      	    dec  (hl)
1914  35      	    dec  (hl)
1915  25      	    dec  h
1916  25      	    dec  h
1917  25      	    dec  h
1918  F43535  	    call p,$3535
191B  35      	    dec  (hl)
191C  35      	    dec  (hl)
191D  25      	    dec  h
191E  25      	    dec  h
191F  25      	    dec  h
1920  F5      	    push af
1921  F5      	    push af
1922  F5      	    push af
1923  F5      	    push af
1924  F42525  	    call p,$2525
1927  25      	    dec  h
1928  F42525  	    call p,$2525
192B  25      	    dec  h
192C  F42525  	    call p,$2525
192F  25      	    dec  h
1930  25      	    dec  h
1931  25      	    dec  h
1932  25      	    dec  h
1933  25      	    dec  h
1934  F42525  	    call p,$2525
1937  25      	    dec  h
1938  25      	    dec  h
1939  25      	    dec  h
193A  25      	    dec  h
193B  25      	    dec  h
193C  F42525  	    call p,$2525
193F  25      	    dec  h
1940  F42525  	    call p,$2525
1943  25      	    dec  h
1944  F42525  	    call p,$2525
1947  25      	    dec  h
1948  F42525  	    call p,$2525
194B  25      	    dec  h
194C  25      	    dec  h
194D  25      	    dec  h
194E  25      	    dec  h
194F  25      	    dec  h
1950  F42525  	    call p,$2525
1953  25      	    dec  h
1954  25      	    dec  h
1955  25      	    dec  h
1956  25      	    dec  h
1957  25      	    dec  h
1958  F42525  	    call p,$2525
195B  25      	    dec  h
195C  F42525  	    call p,$2525
195F  25      	    dec  h
1960  F42525  	    call p,$2525
1963  25      	    dec  h
1964  F42525  	    call p,$2525
1967  25      	    dec  h
1968  25      	    dec  h
1969  25      	    dec  h
196A  25      	    dec  h
196B  25      	    dec  h
196C  F42525  	    call p,$2525
196F  25      	    dec  h
1970  25      	    dec  h
1971  25      	    dec  h
1972  25      	    dec  h
1973  25      	    dec  h
1974  F42525  	    call p,$2525
1977  25      	    dec  h
1978  F42525  	    call p,$2525
197B  25      	    dec  h
197C  F5      	    push af
197D  F5      	    push af
197E  F5      	    push af
197F  F5      	    push af
1980  F5      	    push af
1981  F5      	    push af
1982  F5      	    push af
1983  F5      	    push af
1984  F5      	    push af
1985  F5      	    push af
1986  F5      	    push af
1987  F5      	    push af
1988  F5      	    push af
1989  F5      	    push af
198A  F5      	    push af
198B  F5      	    push af
198C  F5      	    push af
198D  F5      	    push af
198E  F5      	    push af
198F  F5      	    push af
1990  F5      	    push af
1991  F5      	    push af
1992  F5      	    push af
1993  F5      	    push af
1994  F42525  	    call p,$2525
1997  25      	    dec  h
1998  25      	    dec  h
1999  25      	    dec  h
199A  25      	    dec  h
199B  25      	    dec  h
199C  25      	    dec  h
199D  25      	    dec  h
199E  25      	    dec  h
199F  25      	    dec  h
19A0  25      	    dec  h
19A1  25      	    dec  h
19A2  25      	    dec  h
19A3  25      	    dec  h
19A4  25      	    dec  h
19A5  25      	    dec  h
19A6  25      	    dec  h
19A7  25      	    dec  h
19A8  25      	    dec  h
19A9  25      	    dec  h
19AA  25      	    dec  h
19AB  25      	    dec  h
19AC  25      	    dec  h
19AD  25      	    dec  h
19AE  25      	    dec  h
19AF  25      	    dec  h
19B0  25      	    dec  h
19B1  25      	    dec  h
19B2  25      	    dec  h
19B3  25      	    dec  h
19B4  25      	    dec  h
19B5  25      	    dec  h
19B6  25      	    dec  h
19B7  25      	    dec  h
19B8  25      	    dec  h
19B9  25      	    dec  h
19BA  25      	    dec  h
19BB  25      	    dec  h
19BC  25      	    dec  h
19BD  25      	    dec  h
19BE  25      	    dec  h
19BF  25      	    dec  h
19C0  25      	    dec  h
19C1  25      	    dec  h
19C2  25      	    dec  h
19C3  25      	    dec  h
19C4  25      	    dec  h
19C5  25      	    dec  h
19C6  25      	    dec  h
19C7  25      	    dec  h
19C8  25      	    dec  h
19C9  25      	    dec  h
19CA  25      	    dec  h
19CB  25      	    dec  h
19CC  25      	    dec  h
19CD  25      	    dec  h
19CE  25      	    dec  h
19CF  25      	    dec  h
19D0  25      	    dec  h
19D1  25      	    dec  h
19D2  25      	    dec  h
19D3  25      	    dec  h
19D4  25      	    dec  h
19D5  25      	    dec  h
19D6  25      	    dec  h
19D7  25      	    dec  h
19D8  25      	    dec  h
19D9  25      	    dec  h
19DA  25      	    dec  h
19DB  25      	    dec  h
19DC  25      	    dec  h
19DD  25      	    dec  h
19DE  25      	    dec  h
19DF  25      	    dec  h
19E0  25      	    dec  h
19E1  25      	    dec  h
19E2  25      	    dec  h
19E3  25      	    dec  h
19E4  25      	    dec  h
19E5  25      	    dec  h
19E6  25      	    dec  h
19E7  25      	    dec  h
19E8  25      	    dec  h
19E9  25      	    dec  h
19EA  25      	    dec  h
19EB  25      	    dec  h
19EC  F5      	    push af
19ED  F5      	    push af
19EE  F5      	    push af
19EF  F5      	    push af
19F0  F5      	    push af
19F1  F5      	    push af
19F2  F5      	    push af
19F3  F5      	    push af
19F4  F5      	    push af
19F5  F5      	    push af
19F6  F5      	    push af
19F7  F5      	    push af
19F8  F5      	    push af
19F9  F5      	    push af
19FA  F5      	    push af
19FB  F5      	    push af
19FC  F5      	    push af
19FD  F5      	    push af
19FE  F5      	    push af
19FF  F5      	    push af
1A00  F5      	    push af
1A01  F5      	    push af
1A02  F5      	    push af
1A03  F5      	    push af
1A04  F42525  	    call p,$2525
1A07  25      	    dec  h
1A08  F42525  	    call p,$2525
1A0B  25      	    dec  h
1A0C  F42525  	    call p,$2525
1A0F  25      	    dec  h
1A10  F42525  	    call p,$2525
1A13  25      	    dec  h
1A14  F42525  	    call p,$2525
1A17  25      	    dec  h
1A18  25      	    dec  h
1A19  25      	    dec  h
1A1A  25      	    dec  h
1A1B  25      	    dec  h
1A1C  F42525  	    call p,$2525
1A1F  25      	    dec  h
1A20  F42525  	    call p,$2525
1A23  25      	    dec  h
1A24  F42525  	    call p,$2525
1A27  25      	    dec  h
1A28  F42525  	    call p,$2525
1A2B  25      	    dec  h
1A2C  F42525  	    call p,$2525
1A2F  25      	    dec  h
1A30  F42525  	    call p,$2525
1A33  25      	    dec  h
1A34  25      	    dec  h
1A35  25      	    dec  h
1A36  25      	    dec  h
1A37  25      	    dec  h
1A38  F42525  	    call p,$2525
1A3B  25      	    dec  h
1A3C  F42525  	    call p,$2525
1A3F  25      	    dec  h
1A40  F42525  	    call p,$2525
1A43  25      	    dec  h
1A44  F42525  	    call p,$2525
1A47  25      	    dec  h
1A48  F42525  	    call p,$2525
1A4B  25      	    dec  h
1A4C  F42525  	    call p,$2525
1A4F  25      	    dec  h
1A50  25      	    dec  h
1A51  25      	    dec  h
1A52  25      	    dec  h
1A53  25      	    dec  h
1A54  F42525  	    call p,$2525
1A57  25      	    dec  h
1A58  F42525  	    call p,$2525
1A5B  25      	    dec  h
1A5C  F5      	    push af
1A5D  F5      	    push af
1A5E  F5      	    push af
1A5F  F5      	    push af
1A60  F5      	    push af
1A61  F5      	    push af
1A62  F5      	    push af
1A63  F5      	    push af
1A64  F5      	    push af
1A65  F5      	    push af
1A66  F5      	    push af
1A67  F5      	    push af
1A68  F43535  	    call p,$3535
1A6B  35      	    dec  (hl)
1A6C  35      	    dec  (hl)
1A6D  25      	    dec  h
1A6E  25      	    dec  h
1A6F  25      	    dec  h
1A70  F5      	    push af
1A71  F5      	    push af
1A72  F5      	    push af
1A73  F5      	    push af
1A74  F42525  	    call p,$2525
1A77  25      	    dec  h
1A78  F42525  	    call p,$2525
1A7B  25      	    dec  h
1A7C  25      	    dec  h
1A7D  25      	    dec  h
1A7E  25      	    dec  h
1A7F  25      	    dec  h
1A80  F42525  	    call p,$2525
1A83  25      	    dec  h
1A84  F625    	    or   $25
1A86  37      	    scf
1A87  3835    	    jr   c,$1ABE
1A89  25      	    dec  h
1A8A  25      	    dec  h
1A8B  25      	    dec  h
1A8C  F42525  	    call p,$2525
1A8F  25      	    dec  h
1A90  25      	    dec  h
1A91  25      	    dec  h
1A92  25      	    dec  h
1A93  25      	    dec  h
1A94  F42525  	    call p,$2525
1A97  25      	    dec  h
1A98  25      	    dec  h
1A99  25      	    dec  h
1A9A  25      	    dec  h
1A9B  25      	    dec  h
1A9C  F42525  	    call p,$2525
1A9F  25      	    dec  h
1AA0  FC2537  	    call m,$3725
1AA3  3835    	    jr   c,$1ADA
1AA5  25      	    dec  h
1AA6  25      	    dec  h
1AA7  25      	    dec  h
1AA8  F42525  	    call p,$2525
1AAB  25      	    dec  h
1AAC  25      	    dec  h
1AAD  25      	    dec  h
1AAE  25      	    dec  h
1AAF  25      	    dec  h
1AB0  F42525  	    call p,$2525
1AB3  25      	    dec  h
1AB4  25      	    dec  h
1AB5  25      	    dec  h
1AB6  25      	    dec  h
1AB7  25      	    dec  h
1AB8  F42525  	    call p,$2525
1ABB  25      	    dec  h
1ABC  F625    	    or   $25
1ABE  37      	    scf
1ABF  3835    	    jr   c,$1AF6
1AC1  25      	    dec  h
1AC2  25      	    dec  h
1AC3  25      	    dec  h
1AC4  F42525  	    call p,$2525
1AC7  25      	    dec  h
1AC8  25      	    dec  h
1AC9  25      	    dec  h
1ACA  25      	    dec  h
1ACB  25      	    dec  h
1ACC  F43535  	    call p,$3535
1ACF  35      	    dec  (hl)
1AD0  35      	    dec  (hl)
1AD1  25      	    dec  h
1AD2  25      	    dec  h
1AD3  25      	    dec  h
1AD4  F42525  	    call p,$2525
1AD7  25      	    dec  h
1AD8  F43535  	    call p,$3535
1ADB  35      	    dec  (hl)
1ADC  35      	    dec  (hl)
1ADD  25      	    dec  h
1ADE  25      	    dec  h
1ADF  25      	    dec  h
1AE0  F43636  	    call p,$3636
1AE3  3636    	    ld   (hl),$36
1AE5  25      	    dec  h
1AE6  25      	    dec  h
1AE7  25      	    dec  h
1AE8  F625    	    or   $25
1AEA  37      	    scf
1AEB  3835    	    jr   c,$1B22
1AED  25      	    dec  h
1AEE  25      	    dec  h
1AEF  25      	    dec  h
1AF0  F42525  	    call p,$2525
1AF3  25      	    dec  h
1AF4  F42525  	    call p,$2525
1AF7  25      	    dec  h
1AF8  25      	    dec  h
1AF9  25      	    dec  h
1AFA  25      	    dec  h
1AFB  25      	    dec  h
1AFC  F42525  	    call p,$2525
1AFF  25      	    dec  h
1B00  3625    	    ld   (hl),$25
1B02  25      	    dec  h
1B03  25      	    dec  h
1B04  FC2537  	    call m,$3725
1B07  3835    	    jr   c,$1B3E
1B09  25      	    dec  h
1B0A  25      	    dec  h
1B0B  25      	    dec  h
1B0C  F42525  	    call p,$2525
1B0F  25      	    dec  h
1B10  F42525  	    call p,$2525
1B13  25      	    dec  h
1B14  25      	    dec  h
1B15  25      	    dec  h
1B16  25      	    dec  h
1B17  25      	    dec  h
1B18  F9      	    ld   sp,hl
1B19  25      	    dec  h
1B1A  25      	    dec  h
1B1B  25      	    dec  h
1B1C  3625    	    ld   (hl),$25
1B1E  25      	    dec  h
1B1F  25      	    dec  h
1B20  F625    	    or   $25
1B22  37      	    scf
1B23  3835    	    jr   c,$1B5A
1B25  25      	    dec  h
1B26  25      	    dec  h
1B27  25      	    dec  h
1B28  F42525  	    call p,$2525
1B2B  25      	    dec  h
1B2C  F42525  	    call p,$2525
1B2F  25      	    dec  h
1B30  25      	    dec  h
1B31  25      	    dec  h
1B32  25      	    dec  h
1B33  25      	    dec  h
1B34  F42525  	    call p,$2525
1B37  25      	    dec  h
1B38  3625    	    ld   (hl),$25
1B3A  25      	    dec  h
1B3B  25      	    dec  h
1B3C  F43535  	    call p,$3535
1B3F  35      	    dec  (hl)
1B40  35      	    dec  (hl)
1B41  25      	    dec  h
1B42  25      	    dec  h
1B43  25      	    dec  h
1B44  F5      	    push af
1B45  F5      	    push af
1B46  F5      	    push af
1B47  F5      	    push af
1B48  F5      	    push af
1B49  F5      	    push af
1B4A  F5      	    push af
1B4B  F5      	    push af
1B4C  F5      	    push af
1B4D  F5      	    push af
1B4E  F5      	    push af
1B4F  F5      	    push af
1B50  F43636  	    call p,$3636
1B53  3636    	    ld   (hl),$36
1B55  25      	    dec  h
1B56  25      	    dec  h
1B57  25      	    dec  h
1B58  F42525  	    call p,$2525
1B5B  25      	    dec  h
1B5C  25      	    dec  h
1B5D  25      	    dec  h
1B5E  25      	    dec  h
1B5F  25      	    dec  h
1B60  F42525  	    call p,$2525
1B63  25      	    dec  h
1B64  25      	    dec  h
1B65  25      	    dec  h
1B66  25      	    dec  h
1B67  25      	    dec  h
1B68  FD25    	    dec  iyh
1B6A  25      	    dec  h
1B6B  25      	    dec  h
1B6C  F42525  	    call p,$2525
1B6F  25      	    dec  h
1B70  25      	    dec  h
1B71  25      	    dec  h
1B72  25      	    dec  h
1B73  25      	    dec  h
1B74  F42525  	    call p,$2525
1B77  25      	    dec  h
1B78  25      	    dec  h
1B79  25      	    dec  h
1B7A  25      	    dec  h
1B7B  25      	    dec  h
1B7C  F42525  	    call p,$2525
1B7F  25      	    dec  h
1B80  25      	    dec  h
1B81  25      	    dec  h
1B82  25      	    dec  h
1B83  25      	    dec  h
1B84  FF      	    rst  $38
1B85  25      	    dec  h
1B86  25      	    dec  h
1B87  25      	    dec  h
1B88  F42525  	    call p,$2525
1B8B  25      	    dec  h
1B8C  25      	    dec  h
1B8D  25      	    dec  h
1B8E  25      	    dec  h
1B8F  25      	    dec  h
1B90  F42525  	    call p,$2525
1B93  25      	    dec  h
1B94  25      	    dec  h
1B95  25      	    dec  h
1B96  25      	    dec  h
1B97  25      	    dec  h
1B98  F42525  	    call p,$2525
1B9B  25      	    dec  h
1B9C  25      	    dec  h
1B9D  25      	    dec  h
1B9E  25      	    dec  h
1B9F  25      	    dec  h
1BA0  FD25    	    dec  iyh
1BA2  25      	    dec  h
1BA3  25      	    dec  h
1BA4  F42525  	    call p,$2525
1BA7  25      	    dec  h
1BA8  25      	    dec  h
1BA9  25      	    dec  h
1BAA  25      	    dec  h
1BAB  25      	    dec  h
1BAC  F5      	    push af
1BAD  F5      	    push af
1BAE  F5      	    push af
1BAF  F5      	    push af
1BB0  F5      	    push af
1BB1  F5      	    push af
1BB2  F5      	    push af
1BB3  F5      	    push af
1BB4  F43535  	    call p,$3535
1BB7  35      	    dec  (hl)
1BB8  35      	    dec  (hl)
1BB9  25      	    dec  h
1BBA  25      	    dec  h
1BBB  25      	    dec  h
1BBC  25      	    dec  h
1BBD  25      	    dec  h
1BBE  25      	    dec  h
1BBF  25      	    dec  h
1BC0  F5      	    push af
1BC1  F5      	    push af
1BC2  F5      	    push af
1BC3  F5      	    push af
1BC4  F42525  	    call p,$2525
1BC7  25      	    dec  h
1BC8  25      	    dec  h
1BC9  25      	    dec  h
1BCA  25      	    dec  h
1BCB  25      	    dec  h
1BCC  F42525  	    call p,$2525
1BCF  25      	    dec  h
1BD0  F625    	    or   $25
1BD2  37      	    scf
1BD3  3835    	    jr   c,$1C0A
1BD5  25      	    dec  h
1BD6  25      	    dec  h
1BD7  25      	    dec  h
1BD8  25      	    dec  h
1BD9  25      	    dec  h
1BDA  25      	    dec  h
1BDB  25      	    dec  h
1BDC  F42525  	    call p,$2525
1BDF  25      	    dec  h
1BE0  F42525  	    call p,$2525
1BE3  25      	    dec  h
1BE4  25      	    dec  h
1BE5  25      	    dec  h
1BE6  25      	    dec  h
1BE7  25      	    dec  h
1BE8  F42525  	    call p,$2525
1BEB  25      	    dec  h
1BEC  FC2537  	    call m,$3725
1BEF  3835    	    jr   c,$1C26
1BF1  25      	    dec  h
1BF2  25      	    dec  h
1BF3  25      	    dec  h
1BF4  25      	    dec  h
1BF5  25      	    dec  h
1BF6  25      	    dec  h
1BF7  25      	    dec  h
1BF8  F42525  	    call p,$2525
1BFB  25      	    dec  h
1BFC  F42525  	    call p,$2525
1BFF  25      	    dec  h
1C00  25      	    dec  h
1C01  25      	    dec  h
1C02  25      	    dec  h
1C03  25      	    dec  h
1C04  F42525  	    call p,$2525
1C07  25      	    dec  h
1C08  F625    	    or   $25
1C0A  37      	    scf
1C0B  3835    	    jr   c,$1C42
1C0D  25      	    dec  h
1C0E  25      	    dec  h
1C0F  25      	    dec  h
1C10  25      	    dec  h
1C11  25      	    dec  h
1C12  25      	    dec  h
1C13  25      	    dec  h
1C14  F42525  	    call p,$2525
1C17  25      	    dec  h
1C18  F42525  	    call p,$2525
1C1B  25      	    dec  h
1C1C  25      	    dec  h
1C1D  25      	    dec  h
1C1E  25      	    dec  h
1C1F  25      	    dec  h
1C20  F5      	    push af
1C21  F5      	    push af
1C22  F5      	    push af
1C23  F5      	    push af
1C24  F43535  	    call p,$3535
1C27  35      	    dec  (hl)
1C28  35      	    dec  (hl)
1C29  25      	    dec  h
1C2A  25      	    dec  h
1C2B  25      	    dec  h
1C2C  F5      	    push af
1C2D  F5      	    push af
1C2E  F5      	    push af
1C2F  F5      	    push af
1C30  F5      	    push af
1C31  F5      	    push af
1C32  F5      	    push af
1C33  F5      	    push af
1C34  F42525  	    call p,$2525
1C37  25      	    dec  h
1C38  FD25    	    dec  iyh
1C3A  25      	    dec  h
1C3B  25      	    dec  h
1C3C  F42525  	    call p,$2525
1C3F  25      	    dec  h
1C40  F42525  	    call p,$2525
1C43  25      	    dec  h
1C44  25      	    dec  h
1C45  25      	    dec  h
1C46  25      	    dec  h
1C47  25      	    dec  h
1C48  F42525  	    call p,$2525
1C4B  25      	    dec  h
1C4C  F42525  	    call p,$2525
1C4F  25      	    dec  h
1C50  F42525  	    call p,$2525
1C53  25      	    dec  h
1C54  FF      	    rst  $38
1C55  25      	    dec  h
1C56  25      	    dec  h
1C57  25      	    dec  h
1C58  F42525  	    call p,$2525
1C5B  25      	    dec  h
1C5C  F42525  	    call p,$2525
1C5F  25      	    dec  h
1C60  25      	    dec  h
1C61  25      	    dec  h
1C62  25      	    dec  h
1C63  25      	    dec  h
1C64  F42525  	    call p,$2525
1C67  25      	    dec  h
1C68  F42525  	    call p,$2525
1C6B  25      	    dec  h
1C6C  F42525  	    call p,$2525
1C6F  25      	    dec  h
1C70  FD25    	    dec  iyh
1C72  25      	    dec  h
1C73  25      	    dec  h
1C74  F42525  	    call p,$2525
1C77  25      	    dec  h
1C78  F42525  	    call p,$2525
1C7B  25      	    dec  h
1C7C  25      	    dec  h
1C7D  25      	    dec  h
1C7E  25      	    dec  h
1C7F  25      	    dec  h
1C80  F42525  	    call p,$2525
1C83  25      	    dec  h
1C84  F42525  	    call p,$2525
1C87  25      	    dec  h
1C88  F42525  	    call p,$2525
1C8B  25      	    dec  h
1C8C  F5      	    push af
1C8D  F5      	    push af
1C8E  F5      	    push af
1C8F  F5      	    push af
1C90  F5      	    push af
1C91  F5      	    push af
1C92  F5      	    push af
1C93  F5      	    push af
1C94  F5      	    push af
1C95  F5      	    push af
1C96  F5      	    push af
1C97  F5      	    push af
1C98  F5      	    push af
1C99  F5      	    push af
1C9A  F5      	    push af
1C9B  F5      	    push af
1C9C  F5      	    push af
1C9D  F5      	    push af
1C9E  F5      	    push af
1C9F  F5      	    push af
1CA0  F5      	    push af
1CA1  F5      	    push af
1CA2  F5      	    push af
1CA3  F5      	    push af
1CA4  F42525  	    call p,$2525
1CA7  25      	    dec  h
1CA8  25      	    dec  h
1CA9  25      	    dec  h
1CAA  25      	    dec  h
1CAB  25      	    dec  h
1CAC  25      	    dec  h
1CAD  25      	    dec  h
1CAE  25      	    dec  h
1CAF  25      	    dec  h
1CB0  25      	    dec  h
1CB1  25      	    dec  h
1CB2  25      	    dec  h
1CB3  25      	    dec  h
1CB4  25      	    dec  h
1CB5  25      	    dec  h
1CB6  25      	    dec  h
1CB7  25      	    dec  h
1CB8  25      	    dec  h
1CB9  25      	    dec  h
1CBA  25      	    dec  h
1CBB  25      	    dec  h
1CBC  25      	    dec  h
1CBD  25      	    dec  h
1CBE  25      	    dec  h
1CBF  25      	    dec  h
1CC0  25      	    dec  h
1CC1  25      	    dec  h
1CC2  25      	    dec  h
1CC3  25      	    dec  h
1CC4  25      	    dec  h
1CC5  25      	    dec  h
1CC6  25      	    dec  h
1CC7  25      	    dec  h
1CC8  25      	    dec  h
1CC9  25      	    dec  h
1CCA  25      	    dec  h
1CCB  25      	    dec  h
1CCC  25      	    dec  h
1CCD  25      	    dec  h
1CCE  25      	    dec  h
1CCF  25      	    dec  h
1CD0  25      	    dec  h
1CD1  25      	    dec  h
1CD2  25      	    dec  h
1CD3  25      	    dec  h
1CD4  25      	    dec  h
1CD5  25      	    dec  h
1CD6  25      	    dec  h
1CD7  25      	    dec  h
1CD8  25      	    dec  h
1CD9  25      	    dec  h
1CDA  25      	    dec  h
1CDB  25      	    dec  h
1CDC  25      	    dec  h
1CDD  25      	    dec  h
1CDE  25      	    dec  h
1CDF  25      	    dec  h
1CE0  25      	    dec  h
1CE1  25      	    dec  h
1CE2  25      	    dec  h
1CE3  25      	    dec  h
1CE4  25      	    dec  h
1CE5  25      	    dec  h
1CE6  25      	    dec  h
1CE7  25      	    dec  h
1CE8  25      	    dec  h
1CE9  25      	    dec  h
1CEA  25      	    dec  h
1CEB  25      	    dec  h
1CEC  25      	    dec  h
1CED  25      	    dec  h
1CEE  25      	    dec  h
1CEF  25      	    dec  h
1CF0  25      	    dec  h
1CF1  25      	    dec  h
1CF2  25      	    dec  h
1CF3  25      	    dec  h
1CF4  25      	    dec  h
1CF5  25      	    dec  h
1CF6  25      	    dec  h
1CF7  25      	    dec  h
1CF8  25      	    dec  h
1CF9  25      	    dec  h
1CFA  25      	    dec  h
1CFB  25      	    dec  h
1CFC  F5      	    push af
1CFD  F5      	    push af
1CFE  F5      	    push af
1CFF  F5      	    push af
1D00  F5      	    push af
1D01  F5      	    push af
1D02  F5      	    push af
1D03  F5      	    push af
1D04  F5      	    push af
1D05  F5      	    push af
1D06  F5      	    push af
1D07  F5      	    push af
1D08  F5      	    push af
1D09  F5      	    push af
1D0A  F5      	    push af
1D0B  F5      	    push af
1D0C  F5      	    push af
1D0D  F5      	    push af
1D0E  F5      	    push af
1D0F  F5      	    push af
1D10  F5      	    push af
1D11  F5      	    push af
1D12  F5      	    push af
1D13  F5      	    push af
1D14  F42525  	    call p,$2525
1D17  25      	    dec  h
1D18  F42525  	    call p,$2525
1D1B  25      	    dec  h
1D1C  F42525  	    call p,$2525
1D1F  25      	    dec  h
1D20  F42525  	    call p,$2525
1D23  25      	    dec  h
1D24  F42525  	    call p,$2525
1D27  25      	    dec  h
1D28  F42525  	    call p,$2525
1D2B  25      	    dec  h
1D2C  F42525  	    call p,$2525
1D2F  25      	    dec  h
1D30  F42525  	    call p,$2525
1D33  25      	    dec  h
1D34  F42525  	    call p,$2525
1D37  25      	    dec  h
1D38  F42525  	    call p,$2525
1D3B  25      	    dec  h
1D3C  F42525  	    call p,$2525
1D3F  25      	    dec  h
1D40  F42525  	    call p,$2525
1D43  25      	    dec  h
1D44  F42525  	    call p,$2525
1D47  25      	    dec  h
1D48  F42525  	    call p,$2525
1D4B  25      	    dec  h
1D4C  F42525  	    call p,$2525
1D4F  25      	    dec  h
1D50  F42525  	    call p,$2525
1D53  25      	    dec  h
1D54  F42525  	    call p,$2525
1D57  25      	    dec  h
1D58  F42525  	    call p,$2525
1D5B  25      	    dec  h
1D5C  F42525  	    call p,$2525
1D5F  25      	    dec  h
1D60  F42525  	    call p,$2525
1D63  25      	    dec  h
1D64  F42525  	    call p,$2525
1D67  25      	    dec  h
1D68  F42525  	    call p,$2525
1D6B  25      	    dec  h
1D6C  F5      	    push af
1D6D  F5      	    push af
1D6E  F5      	    push af
1D6F  F5      	    push af
1D70  F5      	    push af
1D71  F5      	    push af
1D72  F5      	    push af
1D73  F5      	    push af
1D74  F5      	    push af
1D75  F5      	    push af
1D76  F5      	    push af
1D77  F5      	    push af
1D78  F5      	    push af
1D79  F5      	    push af
1D7A  F5      	    push af
1D7B  F5      	    push af
1D7C  F5      	    push af
1D7D  F5      	    push af
1D7E  F5      	    push af
1D7F  F5      	    push af
1D80  F5      	    push af
1D81  F5      	    push af
1D82  F5      	    push af
1D83  F5      	    push af
1D84  F42525  	    call p,$2525
1D87  25      	    dec  h
1D88  F42525  	    call p,$2525
1D8B  25      	    dec  h
1D8C  F42525  	    call p,$2525
1D8F  25      	    dec  h
1D90  25      	    dec  h
1D91  25      	    dec  h
1D92  25      	    dec  h
1D93  25      	    dec  h
1D94  F42525  	    call p,$2525
1D97  25      	    dec  h
1D98  F42525  	    call p,$2525
1D9B  25      	    dec  h
1D9C  F42525  	    call p,$2525
1D9F  25      	    dec  h
1DA0  25      	    dec  h
1DA1  25      	    dec  h
1DA2  25      	    dec  h
1DA3  25      	    dec  h
1DA4  F42525  	    call p,$2525
1DA7  25      	    dec  h
1DA8  F42525  	    call p,$2525
1DAB  25      	    dec  h
1DAC  25      	    dec  h
1DAD  25      	    dec  h
1DAE  25      	    dec  h
1DAF  25      	    dec  h
1DB0  F42525  	    call p,$2525
1DB3  25      	    dec  h
1DB4  F42525  	    call p,$2525
1DB7  25      	    dec  h
1DB8  F42525  	    call p,$2525
1DBB  25      	    dec  h
1DBC  25      	    dec  h
1DBD  25      	    dec  h
1DBE  25      	    dec  h
1DBF  25      	    dec  h
1DC0  F42525  	    call p,$2525
1DC3  25      	    dec  h
1DC4  F42525  	    call p,$2525
1DC7  25      	    dec  h
1DC8  25      	    dec  h
1DC9  25      	    dec  h
1DCA  25      	    dec  h
1DCB  25      	    dec  h
1DCC  F42525  	    call p,$2525
1DCF  25      	    dec  h
1DD0  F42525  	    call p,$2525
1DD3  25      	    dec  h
1DD4  F42525  	    call p,$2525
1DD7  25      	    dec  h
1DD8  25      	    dec  h
1DD9  25      	    dec  h
1DDA  25      	    dec  h
1DDB  25      	    dec  h
1DDC  F5      	    push af
1DDD  F5      	    push af
1DDE  F5      	    push af
1DDF  F5      	    push af
1DE0  F42525  	    call p,$2525
1DE3  25      	    dec  h
1DE4  25      	    dec  h
1DE5  25      	    dec  h
1DE6  25      	    dec  h
1DE7  25      	    dec  h
1DE8  F5      	    push af
1DE9  F5      	    push af
1DEA  F5      	    push af
1DEB  F5      	    push af
1DEC  F5      	    push af
1DED  F5      	    push af
1DEE  F5      	    push af
1DEF  F5      	    push af
1DF0  F43636  	    call p,$3636
1DF3  3636    	    ld   (hl),$36
1DF5  25      	    dec  h
1DF6  25      	    dec  h
1DF7  25      	    dec  h
1DF8  F42525  	    call p,$2525
1DFB  25      	    dec  h
1DFC  25      	    dec  h
1DFD  25      	    dec  h
1DFE  25      	    dec  h
1DFF  25      	    dec  h
1E00  FD25    	    dec  iyh
1E02  25      	    dec  h
1E03  25      	    dec  h
1E04  F42525  	    call p,$2525
1E07  25      	    dec  h
1E08  25      	    dec  h
1E09  25      	    dec  h
1E0A  25      	    dec  h
1E0B  25      	    dec  h
1E0C  F42525  	    call p,$2525
1E0F  25      	    dec  h
1E10  3625    	    ld   (hl),$25
1E12  25      	    dec  h
1E13  25      	    dec  h
1E14  F42525  	    call p,$2525
1E17  25      	    dec  h
1E18  25      	    dec  h
1E19  25      	    dec  h
1E1A  25      	    dec  h
1E1B  25      	    dec  h
1E1C  FF      	    rst  $38
1E1D  25      	    dec  h
1E1E  25      	    dec  h
1E1F  25      	    dec  h
1E20  F42525  	    call p,$2525
1E23  25      	    dec  h
1E24  25      	    dec  h
1E25  25      	    dec  h
1E26  25      	    dec  h
1E27  25      	    dec  h
1E28  F9      	    ld   sp,hl
1E29  25      	    dec  h
1E2A  25      	    dec  h
1E2B  25      	    dec  h
1E2C  3625    	    ld   (hl),$25
1E2E  25      	    dec  h
1E2F  25      	    dec  h
1E30  F42525  	    call p,$2525
1E33  25      	    dec  h
1E34  25      	    dec  h
1E35  25      	    dec  h
1E36  25      	    dec  h
1E37  25      	    dec  h
1E38  FD25    	    dec  iyh
1E3A  25      	    dec  h
1E3B  25      	    dec  h
1E3C  F42525  	    call p,$2525
1E3F  25      	    dec  h
1E40  25      	    dec  h
1E41  25      	    dec  h
1E42  25      	    dec  h
1E43  25      	    dec  h
1E44  F42525  	    call p,$2525
1E47  25      	    dec  h
1E48  3625    	    ld   (hl),$25
1E4A  25      	    dec  h
1E4B  25      	    dec  h
1E4C  F43535  	    call p,$3535
1E4F  35      	    dec  (hl)
1E50  35      	    dec  (hl)
1E51  25      	    dec  h
1E52  25      	    dec  h
1E53  25      	    dec  h
1E54  F5      	    push af
1E55  F5      	    push af
1E56  F5      	    push af
1E57  F5      	    push af
1E58  F42525  	    call p,$2525
1E5B  25      	    dec  h
1E5C  25      	    dec  h
1E5D  25      	    dec  h
1E5E  25      	    dec  h
1E5F  25      	    dec  h
1E60  F43636  	    call p,$3636
1E63  3636    	    ld   (hl),$36
1E65  25      	    dec  h
1E66  25      	    dec  h
1E67  25      	    dec  h
1E68  F625    	    or   $25
1E6A  37      	    scf
1E6B  3835    	    jr   c,$1EA2
1E6D  25      	    dec  h
1E6E  25      	    dec  h
1E6F  25      	    dec  h
1E70  F42525  	    call p,$2525
1E73  25      	    dec  h
1E74  25      	    dec  h
1E75  25      	    dec  h
1E76  25      	    dec  h
1E77  25      	    dec  h
1E78  FD25    	    dec  iyh
1E7A  25      	    dec  h
1E7B  25      	    dec  h
1E7C  F42525  	    call p,$2525
1E7F  25      	    dec  h
1E80  25      	    dec  h
1E81  25      	    dec  h
1E82  25      	    dec  h
1E83  25      	    dec  h
1E84  FC2537  	    call m,$3725
1E87  3835    	    jr   c,$1EBE
1E89  25      	    dec  h
1E8A  25      	    dec  h
1E8B  25      	    dec  h
1E8C  F42525  	    call p,$2525
1E8F  25      	    dec  h
1E90  25      	    dec  h
1E91  25      	    dec  h
1E92  25      	    dec  h
1E93  25      	    dec  h
1E94  FF      	    rst  $38
1E95  25      	    dec  h
1E96  25      	    dec  h
1E97  25      	    dec  h
1E98  F42525  	    call p,$2525
1E9B  25      	    dec  h
1E9C  25      	    dec  h
1E9D  25      	    dec  h
1E9E  25      	    dec  h
1E9F  25      	    dec  h
1EA0  F625    	    or   $25
1EA2  37      	    scf
1EA3  3835    	    jr   c,$1EDA
1EA5  25      	    dec  h
1EA6  25      	    dec  h
1EA7  25      	    dec  h
1EA8  F42525  	    call p,$2525
1EAB  25      	    dec  h
1EAC  25      	    dec  h
1EAD  25      	    dec  h
1EAE  25      	    dec  h
1EAF  25      	    dec  h
1EB0  FD25    	    dec  iyh
1EB2  25      	    dec  h
1EB3  25      	    dec  h
1EB4  F42525  	    call p,$2525
1EB7  25      	    dec  h
1EB8  25      	    dec  h
1EB9  25      	    dec  h
1EBA  25      	    dec  h
1EBB  25      	    dec  h
1EBC  F43535  	    call p,$3535
1EBF  35      	    dec  (hl)
1EC0  35      	    dec  (hl)
1EC1  25      	    dec  h
1EC2  25      	    dec  h
1EC3  25      	    dec  h
1EC4  F43535  	    call p,$3535
1EC7  35      	    dec  (hl)
1EC8  35      	    dec  (hl)
1EC9  25      	    dec  h
1ECA  25      	    dec  h
1ECB  25      	    dec  h
1ECC  F5      	    push af
1ECD  F5      	    push af
1ECE  F5      	    push af
1ECF  F5      	    push af
1ED0  F43535  	    call p,$3535
1ED3  35      	    dec  (hl)
1ED4  35      	    dec  (hl)
1ED5  25      	    dec  h
1ED6  25      	    dec  h
1ED7  25      	    dec  h
1ED8  F42525  	    call p,$2525
1EDB  25      	    dec  h
1EDC  25      	    dec  h
1EDD  25      	    dec  h
1EDE  25      	    dec  h
1EDF  25      	    dec  h
1EE0  F625    	    or   $25
1EE2  37      	    scf
1EE3  3835    	    jr   c,$1F1A
1EE5  25      	    dec  h
1EE6  25      	    dec  h
1EE7  25      	    dec  h
1EE8  F42525  	    call p,$2525
1EEB  25      	    dec  h
1EEC  F625    	    or   $25
1EEE  37      	    scf
1EEF  3835    	    jr   c,$1F26
1EF1  25      	    dec  h
1EF2  25      	    dec  h
1EF3  25      	    dec  h
1EF4  F42525  	    call p,$2525
1EF7  25      	    dec  h
1EF8  25      	    dec  h
1EF9  25      	    dec  h
1EFA  25      	    dec  h
1EFB  25      	    dec  h
1EFC  FC2537  	    call m,$3725
1EFF  3835    	    jr   c,$1F36
1F01  25      	    dec  h
1F02  25      	    dec  h
1F03  25      	    dec  h
1F04  F42525  	    call p,$2525
1F07  25      	    dec  h
1F08  FC2537  	    call m,$3725
1F0B  3835    	    jr   c,$1F42
1F0D  25      	    dec  h
1F0E  25      	    dec  h
1F0F  25      	    dec  h
1F10  F42525  	    call p,$2525
1F13  25      	    dec  h
1F14  25      	    dec  h
1F15  25      	    dec  h
1F16  25      	    dec  h
1F17  25      	    dec  h
1F18  F625    	    or   $25
1F1A  37      	    scf
1F1B  3835    	    jr   c,$1F52
1F1D  25      	    dec  h
1F1E  25      	    dec  h
1F1F  25      	    dec  h
1F20  F42525  	    call p,$2525
1F23  25      	    dec  h
1F24  F625    	    or   $25
1F26  37      	    scf
1F27  3835    	    jr   c,$1F5E
1F29  25      	    dec  h
1F2A  25      	    dec  h
1F2B  25      	    dec  h
1F2C  F5      	    push af
1F2D  F5      	    push af
1F2E  F5      	    push af
1F2F  F5      	    push af
1F30  F5      	    push af
1F31  F5      	    push af
1F32  F5      	    push af
1F33  F5      	    push af
1F34  F43535  	    call p,$3535
1F37  35      	    dec  (hl)
1F38  35      	    dec  (hl)
1F39  25      	    dec  h
1F3A  25      	    dec  h
1F3B  25      	    dec  h
1F3C  F5      	    push af
1F3D  F5      	    push af
1F3E  F5      	    push af
1F3F  F5      	    push af
1F40  F43535  	    call p,$3535
1F43  35      	    dec  (hl)
1F44  35      	    dec  (hl)
1F45  25      	    dec  h
1F46  25      	    dec  h
1F47  25      	    dec  h
1F48  F42525  	    call p,$2525
1F4B  25      	    dec  h
1F4C  F42525  	    call p,$2525
1F4F  25      	    dec  h
1F50  F42525  	    call p,$2525
1F53  25      	    dec  h
1F54  25      	    dec  h
1F55  25      	    dec  h
1F56  25      	    dec  h
1F57  25      	    dec  h
1F58  F42525  	    call p,$2525
1F5B  25      	    dec  h
1F5C  F42525  	    call p,$2525
1F5F  25      	    dec  h
1F60  25      	    dec  h
1F61  25      	    dec  h
1F62  25      	    dec  h
1F63  25      	    dec  h
1F64  F42525  	    call p,$2525
1F67  25      	    dec  h
1F68  F42525  	    call p,$2525
1F6B  25      	    dec  h
1F6C  F42525  	    call p,$2525
1F6F  25      	    dec  h
1F70  25      	    dec  h
1F71  25      	    dec  h
1F72  25      	    dec  h
1F73  25      	    dec  h
1F74  F42525  	    call p,$2525
1F77  25      	    dec  h
1F78  F42525  	    call p,$2525
1F7B  25      	    dec  h
1F7C  25      	    dec  h
1F7D  25      	    dec  h
1F7E  25      	    dec  h
1F7F  25      	    dec  h
1F80  F42525  	    call p,$2525
1F83  25      	    dec  h
1F84  F42525  	    call p,$2525
1F87  25      	    dec  h
1F88  F42525  	    call p,$2525
1F8B  25      	    dec  h
1F8C  25      	    dec  h
1F8D  25      	    dec  h
1F8E  25      	    dec  h
1F8F  25      	    dec  h
1F90  F42525  	    call p,$2525
1F93  25      	    dec  h
1F94  F42525  	    call p,$2525
1F97  25      	    dec  h
1F98  25      	    dec  h
1F99  25      	    dec  h
1F9A  25      	    dec  h
1F9B  25      	    dec  h
1F9C  F5      	    push af
1F9D  F5      	    push af
1F9E  F5      	    push af
1F9F  F5      	    push af
1FA0  F5      	    push af
1FA1  F5      	    push af
1FA2  F5      	    push af
1FA3  F5      	    push af
1FA4  F5      	    push af
1FA5  F5      	    push af
1FA6  F5      	    push af
1FA7  F5      	    push af
1FA8  F5      	    push af
1FA9  F5      	    push af
1FAA  F5      	    push af
1FAB  F5      	    push af
1FAC  F5      	    push af
1FAD  F5      	    push af
1FAE  F5      	    push af
1FAF  F5      	    push af
1FB0  F42525  	    call p,$2525
1FB3  25      	    dec  h
1FB4  25      	    dec  h
1FB5  25      	    dec  h
1FB6  25      	    dec  h
1FB7  25      	    dec  h
1FB8  25      	    dec  h
1FB9  25      	    dec  h
1FBA  25      	    dec  h
1FBB  25      	    dec  h
1FBC  25      	    dec  h
1FBD  25      	    dec  h
1FBE  25      	    dec  h
1FBF  25      	    dec  h
1FC0  25      	    dec  h
1FC1  25      	    dec  h
1FC2  25      	    dec  h
1FC3  25      	    dec  h
1FC4  25      	    dec  h
1FC5  25      	    dec  h
1FC6  25      	    dec  h
1FC7  25      	    dec  h
1FC8  25      	    dec  h
1FC9  25      	    dec  h
1FCA  25      	    dec  h
1FCB  25      	    dec  h
1FCC  25      	    dec  h
1FCD  25      	    dec  h
1FCE  25      	    dec  h
1FCF  25      	    dec  h
1FD0  25      	    dec  h

                main_game_loop:
1FD1  3A3980  	    ld   a,(screen_state)
1FD4  A7      	    and  a
1FD5  C2E31F  	    jp   nz,$1FE3
1FD8  3A3B80  	    ld   a,(cur_screen)
1FDB  FE06    	    cp   SCR_GAME
1FDD  C2E01F  	    jp   nz,$1FE0
1FE0  C3D11F  	    jp   main_game_loop
1FE3  0F      	    rrca
1FE4  DA9E21  	    jp   c,$219E
1FE7  0F      	    rrca
1FE8  DACA21  	    jp   c,$21CA
1FEB  0F      	    rrca
1FEC  DAF621  	    jp   c,$21F6
1FEF  0F      	    rrca
1FF0  DA0422  	    jp   c,$2204
1FF3  0F      	    rrca
1FF4  DA8422  	    jp   c,$2284
1FF7  0F      	    rrca
1FF8  DA0A20  	    jp   c,$200A
1FFB  0F      	    rrca
1FFC  DAB320  	    jp   c,$20B3
1FFF  0F      	    rrca
                ;;; ============ start of suprmous.x3 =============
2000  DAD920  	    jp   c,$20D9
2003  AF      	    xor  a
2004  323980  	    ld   (screen_state),a
2007  C3D11F  	    jp   main_game_loop

200A  CDEC20  	    call $20EC
200D  210085  	    ld   hl,cat1_enable ; clear cat enable data
2010  0610    	    ld   b,$10          ; 16 bytes
2012  3E00    	    ld   a,$00
2014  77      	    ld   (hl),a
2015  23      	    inc  hl
2016  10FC    	    djnz $2014
2018  210086  	    ld   hl,snake1_enable ; clear snake enable data
201B  0610    	    ld   b,$10            ; 16 bytes
201D  77      	    ld   (hl),a
201E  23      	    inc  hl
201F  10FC    	    djnz $201D
2021  320084  	    ld   (player_bytes),a
2024  219C80  	    ld   hl,$809C
2027  0660    	    ld   b,$60  ; 96 bytes cleared
2029  77      	    ld   (hl),a
202A  23      	    inc  hl
202B  10FC    	    djnz $2029
202D  3A3180  	    ld   a,($8031)
2030  A7      	    and  a
2031  C23A20  	    jp   nz,$203A
2034  210082  	    ld   hl,lives_copy
2037  C33D20  	    jp   $203D
203A  210083  	    ld   hl,$8300
203D  110081  	    ld   de,lives
2040  01FF00  	    ld   bc,$00FF
2043  EDB0    	    ldir
2045  CD8220  	    call $2082
2048  CD9D20  	    call $209D
204B  CD0B13  	    call $130B
204E  CD293E  	    call $3E29
2051  CD343F  	    call $3F34
2054  CD7B41  	    call $417B
2057  CD2742  	    call $4227
205A  3EA0    	    ld   a,$A0
205C  3200B8  	    ld   (watchdog),a
205F  214080  	    ld   hl,$8040
2062  3E00    	    ld   a,$00
2064  0604    	    ld   b,$04
2066  77      	    ld   (hl),a
2067  23      	    inc  hl
2068  10FC    	    djnz $2066
206A  3E05    	    ld   a,$05
206C  327F86  	    ld   (bombs),a
206F  CD6C10  	    call $106C
2072  3E06    	    ld   a,$06
2074  323B80  	    ld   (cur_screen),a
2077  3A3980  	    ld   a,(screen_state)
207A  CBAF    	    res  5,a
207C  323980  	    ld   (screen_state),a
207F  C3D11F  	    jp   $1FD1


2082  216292  	    ld   hl,$9262
2085  11AB20  	    ld   de,$20AB
2088  0608    	    ld   b,$08
208A  C5      	    push bc
208B  1A      	    ld   a,(de)
208C  77      	    ld   (hl),a
208D  01E0FF  	    ld   bc,$FFE0
2090  09      	    add  hl,bc
2091  13      	    inc  de
2092  C1      	    pop  bc
2093  10F5    	    djnz $208A
2095  3A3180  	    ld   a,($8031)
2098  3C      	    inc  a
2099  328291  	    ld   ($9182),a
209C  C9      	    ret


209D  216296  	    ld   hl,$9662
20A0  11E0FF  	    ld   de,$FFE0
20A3  0608    	    ld   b,$08
20A5  3687    	    ld   (hl),$87
20A7  19      	    add  hl,de
20A8  10FB    	    djnz $20A5
20AA  C9      	    ret
20AB  19      	    add  hl,de
20AC  15      	    dec  d
20AD  0A      	    ld   a,(bc)
20AE  220E1B  	    ld   ($1B0E),hl
20B1  24      	    inc  h
20B2  24      	    inc  h
20B3  CDEC20  	    call $20EC
20B6  CD8220  	    call $2082
20B9  CD9D20  	    call $209D
20BC  CDBB09  	    call $09BB
20BF  3E07    	    ld   a,$07
20C1  323B80  	    ld   (cur_screen),a
20C4  3EE0    	    ld   a,$E0
20C6  3200B8  	    ld   (watchdog),a
20C9  3E00    	    ld   a,$00
20CB  328084  	    ld   ($8480),a
20CE  3A3980  	    ld   a,(screen_state)
20D1  CBB7    	    res  6,a
20D3  323980  	    ld   (screen_state),a
20D6  C3D11F  	    jp   $1FD1
20D9  CDEC20  	    call $20EC
20DC  3E01    	    ld   a,$01
20DE  323B80  	    ld   (cur_screen),a
20E1  3A3980  	    ld   a,(screen_state)
20E4  CBBF    	    res  7,a
20E6  323980  	    ld   (screen_state),a
20E9  C3D11F  	    jp   $1FD1

20EC  210290  	    ld   hl,$9002
20EF  112000  	    ld   de,$0020
20F2  0620    	    ld   b,$20
20F4  0E1D    	    ld   c,$1D
20F6  C5      	    push bc
20F7  E5      	    push hl
20F8  3624    	    ld   (hl),$24
20FA  2C      	    inc  l
20FB  0D      	    dec  c
20FC  C2F820  	    jp   nz,$20F8
20FF  E1      	    pop  hl
2100  19      	    add  hl,de
2101  C1      	    pop  bc
2102  10F2    	    djnz $20F6
2104  210294  	    ld   hl,$9402
2107  0620    	    ld   b,$20
2109  0E1D    	    ld   c,$1D
210B  C5      	    push bc
210C  E5      	    push hl
210D  3684    	    ld   (hl),$84
210F  2C      	    inc  l
2110  0D      	    dec  c
2111  C20D21  	    jp   nz,$210D
2114  E1      	    pop  hl
2115  19      	    add  hl,de
2116  C1      	    pop  bc
2117  10F2    	    djnz $210B
2119  210098  	    ld   hl,x_offset
211C  0640    	    ld   b,$40
211E  3600    	    ld   (hl),$00
2120  2C      	    inc  l
2121  10FB    	    djnz $211E
2123  210080  	    ld   hl,ram_start
2126  0620    	    ld   b,$20
2128  3600    	    ld   (hl),$00
212A  2C      	    inc  l
212B  10FB    	    djnz $2128
212D  C9      	    ret
212E  5E      	    ld   e,(hl)
212F  23      	    inc  hl
2130  56      	    ld   d,(hl)
2131  23      	    inc  hl
2132  EB      	    ex   de,hl
2133  01E0FF  	    ld   bc,$FFE0
2136  1A      	    ld   a,(de)
2137  FEFF    	    cp   $FF
2139  C8      	    ret  z
213A  77      	    ld   (hl),a
213B  13      	    inc  de
213C  09      	    add  hl,bc
213D  18F7    	    jr   $2136
213F  214C80  	    ld   hl,hiscore_hi
2142  D5      	    push de
2143  0603    	    ld   b,$03
2145  1A      	    ld   a,(de)
2146  BE      	    cp   (hl)
2147  DA5421  	    jp   c,$2154
214A  CA5021  	    jp   z,$2150
214D  D25621  	    jp   nc,$2156
2150  1B      	    dec  de
2151  2B      	    dec  hl
2152  10F1    	    djnz $2145
2154  D1      	    pop  de
2155  C9      	    ret
2156  D1      	    pop  de
2157  214C80  	    ld   hl,hiscore_hi
215A  0603    	    ld   b,$03
215C  1A      	    ld   a,(de)
215D  77      	    ld   (hl),a
215E  2B      	    dec  hl
215F  1B      	    dec  de
2160  10FA    	    djnz $215C
2162  114C80  	    ld   de,hiscore_hi
2165  212192  	    ld   hl,$9221
2168  0606    	    ld   b,$06
216A  48      	    ld   c,b
216B  CB38    	    srl  b
216D  DC8221  	    call c,$2182
2170  78      	    ld   a,b
2171  A7      	    and  a
2172  C8      	    ret  z
2173  CD7921  	    call $2179
2176  C37021  	    jp   $2170
2179  1A      	    ld   a,(de)
217A  0F      	    rrca
217B  0F      	    rrca
217C  0F      	    rrca
217D  0F      	    rrca
217E  CD8421  	    call $2184
2181  05      	    dec  b

2182  1A      	    ld   a,(de)
2183  1B      	    dec  de
2184  E60F    	    and  $0F
2186  C29221  	    jp   nz,$2192
2189  0D      	    dec  c
218A  CA9221  	    jp   z,$2192
218D  3E24    	    ld   a,$24
218F  C39621  	    jp   $2196
2192  0E01    	    ld   c,$01
2194  C600    	    add  a,$00
2196  77      	    ld   (hl),a
2197  C5      	    push bc
2198  01E0FF  	    ld   bc,$FFE0
219B  09      	    add  hl,bc
219C  C1      	    pop  bc
219D  C9      	    ret
219E  CDEC20  	    call $20EC
21A1  214223  	    ld   hl,$2342
21A4  CD2E21  	    call $212E
21A7  215223  	    ld   hl,$2352
21AA  CD2E21  	    call $212E
21AD  215923  	    ld   hl,$2359
21B0  CD2E21  	    call $212E
21B3  AF      	    xor  a
21B4  323380  	    ld   ($8033),a
21B7  323280  	    ld   ($8032),a
21BA  3E02    	    ld   a,$02
21BC  323B80  	    ld   (cur_screen),a
21BF  3A3980  	    ld   a,(screen_state)
21C2  CB87    	    res  0,a
21C4  323980  	    ld   (screen_state),a
21C7  C3D11F  	    jp   $1FD1
21CA  CDEC20  	    call $20EC
21CD  216223  	    ld   hl,$2362
21D0  CD2E21  	    call $212E
21D3  215223  	    ld   hl,$2352
21D6  CD2E21  	    call $212E
21D9  215923  	    ld   hl,$2359
21DC  CD2E21  	    call $212E
21DF  AF      	    xor  a
21E0  323380  	    ld   ($8033),a
21E3  323280  	    ld   ($8032),a
21E6  3E03    	    ld   a,$03
21E8  323B80  	    ld   (cur_screen),a
21EB  3A3980  	    ld   a,(screen_state)
21EE  CB8F    	    res  1,a
21F0  323980  	    ld   (screen_state),a
21F3  C3D11F  	    jp   $1FD1
21F6  CDEC20  	    call $20EC
21F9  3A3980  	    ld   a,(screen_state)
21FC  CB97    	    res  2,a
21FE  323980  	    ld   (screen_state),a
2201  C3D11F  	    jp   $1FD1
2204  CDEC20  	    call $20EC
2207  217223  	    ld   hl,$2372
220A  CD2E21  	    call $212E
220D  3A3080  	    ld   a,(is_playing)
2210  FE01    	    cp   $01
2212  CA4022  	    jp   z,$2240
2215  3A3580  	    ld   a,($8035)
2218  0E01    	    ld   c,$01
221A  A7      	    and  a
221B  CA2622  	    jp   z,$2226
221E  3A3480  	    ld   a,($8034)
2221  A7      	    and  a
2222  C27122  	    jp   nz,$2271
2225  0C      	    inc  c
2226  79      	    ld   a,c
2227  08      	    ex   af,af'
2228  217E23  	    ld   hl,$237E
222B  CD2E21  	    call $212E
222E  08      	    ex   af,af'
222F  77      	    ld   (hl),a
2230  114680  	    ld   de,score_hi
2233  0F      	    rrca
2234  DA3A22  	    jp   c,$223A
2237  114980  	    ld   de,$8049
223A  CD3F21  	    call $213F
223D  C36122  	    jp   $2261
2240  114680  	    ld   de,score_hi
2243  CD3F21  	    call $213F
2246  AF      	    xor  a
2247  323680  	    ld   ($8036),a
224A  3203B0  	    ld   (sound_enable),a
224D  2106B0  	    ld   hl,flip_scr_x
2250  77      	    ld   (hl),a
2251  2C      	    inc  l
2252  77      	    ld   (hl),a
2253  214480  	    ld   hl,score_lo
2256  0606    	    ld   b,$06
2258  77      	    ld   (hl),a
2259  23      	    inc  hl
225A  10FC    	    djnz $2258
225C  3E80    	    ld   a,$80
225E  323D80  	    ld   ($803D),a
2261  3E04    	    ld   a,$04
2263  323B80  	    ld   (cur_screen),a
2266  3A3980  	    ld   a,(screen_state)
2269  CB9F    	    res  3,a
226B  323980  	    ld   (screen_state),a
226E  C3D11F  	    jp   $1FD1
2271  114680  	    ld   de,score_hi
2274  CD3F21  	    call $213F
2277  00      	    nop
2278  00      	    nop
2279  00      	    nop
227A  00      	    nop
227B  114980  	    ld   de,$8049
227E  CD3F21  	    call $213F
2281  C34622  	    jp   $2246
2284  CDEC20  	    call $20EC
2287  3A3880  	    ld   a,($8038)
228A  A7      	    and  a
228B  CAAE22  	    jp   z,$22AE
228E  AF      	    xor  a
228F  323880  	    ld   ($8038),a
2292  216193  	    ld   hl,$9361
2295  11E0FF  	    ld   de,$FFE0
2298  CDA422  	    call $22A4
229B  210191  	    ld   hl,$9101
229E  CDA422  	    call $22A4
22A1  C3AE22  	    jp   $22AE
22A4  0605    	    ld   b,$05
22A6  3624    	    ld   (hl),$24
22A8  19      	    add  hl,de
22A9  10FB    	    djnz $22A6
22AB  3600    	    ld   (hl),$00
22AD  C9      	    ret

22AE  3A3180  	    ld   a,($8031)
22B1  A7      	    and  a
22B2  CABE22  	    jp   z,$22BE
22B5  3A2780  	    ld   a,($8027)
22B8  A7      	    and  a
22B9  CABE22  	    jp   z,$22BE
22BC  3E01    	    ld   a,$01
22BE  2106B0  	    ld   hl,flip_scr_x
22C1  77      	    ld   (hl),a
22C2  2C      	    inc  l
22C3  77      	    ld   (hl),a
22C4  217E23  	    ld   hl,$237E
22C7  CD2E21  	    call $212E
22CA  3A3180  	    ld   a,($8031)
22CD  3C      	    inc  a
22CE  77      	    ld   (hl),a
22CF  3D      	    dec  a
22D0  210182  	    ld   hl,$8201
22D3  A7      	    and  a
22D4  CAD822  	    jp   z,$22D8
22D7  24      	    inc  h
22D8  7E      	    ld   a,(hl)
22D9  C601    	    add  a,$01
22DB  27      	    daa
22DC  08      	    ex   af,af'
22DD  218823  	    ld   hl,$2388
22E0  CD2E21  	    call $212E
22E3  08      	    ex   af,af'
22E4  323780  	    ld   ($8037),a
22E7  113780  	    ld   de,$8037
22EA  0602    	    ld   b,$02
22EC  CD6A21  	    call $216A
22EF  CD0723  	    call $2307
22F2  3E05    	    ld   a,$05
22F4  323B80  	    ld   (cur_screen),a
22F7  3E40    	    ld   a,$40
22F9  323D80  	    ld   ($803D),a
22FC  3A3980  	    ld   a,(screen_state)
22FF  CBA7    	    res  4,a
2301  323980  	    ld   (screen_state),a
2304  C3D11F  	    jp   $1FD1
2307  3A3180  	    ld   a,($8031)
230A  210082  	    ld   hl,lives_copy
230D  A7      	    and  a
230E  CA1223  	    jp   z,$2312
2311  24      	    inc  h
2312  7E      	    ld   a,(hl)
2313  0607    	    ld   b,$07
2315  219F93  	    ld   hl,$939F
2318  11E0FF  	    ld   de,$FFE0
231B  3D      	    dec  a
231C  A7      	    and  a
231D  CA2823  	    jp   z,$2328
2320  3679    	    ld   (hl),$79
2322  19      	    add  hl,de
2323  05      	    dec  b
2324  3D      	    dec  a
2325  C22023  	    jp   nz,$2320
2328  3624    	    ld   (hl),$24
232A  19      	    add  hl,de
232B  10FB    	    djnz $2328
232D  C9      	    ret
232E  210081  	    ld   hl,lives
2331  7E      	    ld   a,(hl)
2332  3D      	    dec  a
2333  219F93  	    ld   hl,$939F
2336  11E0FF  	    ld   de,$FFE0
2339  0607    	    ld   b,$07
233B  A7      	    and  a
233C  CA2823  	    jp   z,$2328
233F  C31C23  	    jp   $231C
2342  AE      	    xor  (hl)
2343  92      	    sub  d
2344  1817    	    jr   $235D
2346  15      	    dec  d
2347  222401  	    ld   ($0124),hl
234A  24      	    inc  h
234B  19      	    add  hl,de
234C  15      	    dec  d
234D  0A      	    ld   a,(bc)
234E  220E1B  	    ld   ($1B0E),hl
2351  FF      	    rst  $38
2352  2C      	    inc  l
2353  92      	    sub  d
2354  19      	    add  hl,de
2355  1E1C    	    ld   e,$1C
2357  11FF50  	    ld   de,$50FF
235A  92      	    sub  d
235B  0B      	    dec  bc
235C  1E1D    	    ld   e,$1D
235E  1D      	    dec  e
235F  1817    	    jr   $2378
2361  FF      	    rst  $38
2362  AE      	    xor  (hl)
2363  92      	    sub  d
2364  012418  	    ld   bc,$1824
2367  1B      	    dec  de
2368  24      	    inc  h
2369  02      	    ld   (bc),a
236A  24      	    inc  h
236B  19      	    add  hl,de
236C  15      	    dec  d
236D  0A      	    ld   a,(bc)
236E  220E1B  	    ld   ($1B0E),hl
2371  FF      	    rst  $38
2372  8C      	    adc  a,h
2373  92      	    sub  d
2374  100A    	    djnz $2380
2376  160E    	    ld   d,$0E
2378  24      	    inc  h
2379  181F    	    jr   $239A
237B  0E1B    	    ld   c,$1B
237D  FF      	    rst  $38
237E  8F      	    adc  a,a
237F  92      	    sub  d
2380  19      	    add  hl,de
2381  15      	    dec  d
2382  0A      	    ld   a,(bc)
2383  220E1B  	    ld   ($1B0E),hl
2386  24      	    inc  h
2387  FF      	    rst  $38
2388  94      	    sub  h
2389  92      	    sub  d
238A  15      	    dec  d
238B  0E1F    	    ld   c,$1F
238D  0E15    	    ld   c,$15
238F  24      	    inc  h
2390  FF      	    rst  $38


2391  3A1F84  	    ld   a,($841F)
2394  FE02    	    cp   $02
2396  CAC523  	    jp   z,$23C5
2399  3A3E80  	    ld   a,($803E)
239C  A7      	    and  a
239D  C2C923  	    jp   nz,$23C9
23A0  CD7D40  	    call $407D
23A3  CDFF3B  	    call $3BFF
23A6  CD0A3D  	    call $3D0A
23A9  CD512A  	    call $2A51
23AC  CD0632  	    call $3206
23AF  CD3925  	    call $2539
23B2  CD4B39  	    call $394B
23B5  CDD323  	    call $23D3
23B8  CD2A39  	    call $392A
23BB  CD6D11  	    call $116D
23BE  CD0F10  	    call $100F
23C1  CDBC41  	    call $41BC
23C4  C9      	    ret

23C5  CD3925  	    call $2539
23C8  C9      	    ret
23C9  CD512A  	    call $2A51
23CC  CD0632  	    call $3206
23CF  CDD323  	    call $23D3
23D2  C9      	    ret

23D3  3A3380  	    ld   a,($8033)
23D6  A7      	    and  a
23D7  C0      	    ret  nz
23D8  3A1F84  	    ld   a,($841F)
23DB  FE02    	    cp   $02
23DD  C8      	    ret  z
23DE  3A3E80  	    ld   a,($803E)
23E1  A7      	    and  a
23E2  CA2924  	    jp   z,$2429
23E5  3A3F80  	    ld   a,($803F)
23E8  3C      	    inc  a
23E9  323F80  	    ld   ($803F),a
23EC  FE02    	    cp   $02
23EE  CA0624  	    jp   z,$2406
23F1  FE04    	    cp   $04
23F3  CA0624  	    jp   z,$2406
23F6  FEE8    	    cp   $E8
23F8  CA0C24  	    jp   z,$240C
23FB  FEEC    	    cp   $EC
23FD  CA1224  	    jp   z,$2412
2400  FEF0    	    cp   $F0
2402  CA1824  	    jp   z,$2418
2405  C9      	    ret
2406  3E91    	    ld   a,$91
2408  3200B8  	    ld   (watchdog),a
240B  C9      	    ret
240C  3EA0    	    ld   a,$A0
240E  3200B8  	    ld   (watchdog),a
2411  C9      	    ret
2412  3EE0    	    ld   a,$E0
2414  3200B8  	    ld   (watchdog),a
2417  C9      	    ret
2418  3E00    	    ld   a,$00
241A  328084  	    ld   ($8480),a
241D  323E80  	    ld   ($803E),a
2420  323F80  	    ld   ($803F),a
2423  3E01    	    ld   a,$01
2425  323280  	    ld   ($8032),a
2428  C9      	    ret
2429  214081  	    ld   hl,$8140
242C  3E00    	    ld   a,$00
242E  0609    	    ld   b,$09
2430  BE      	    cp   (hl)
2431  C8      	    ret  z
2432  23      	    inc  hl
2433  23      	    inc  hl
2434  10FA    	    djnz $2430
2436  1600    	    ld   d,$00
2438  3A2B86  	    ld   a,($862B)
243B  A7      	    and  a
243C  C24924  	    jp   nz,$2449
243F  3E06    	    ld   a,$06
2441  321786  	    ld   ($8617),a
2444  3E08    	    ld   a,$08
2446  82      	    add  a,d
2447  27      	    daa
2448  57      	    ld   d,a
2449  3A4B86  	    ld   a,($864B)
244C  A7      	    and  a
244D  C25A24  	    jp   nz,$245A
2450  3E06    	    ld   a,$06
2452  323786  	    ld   ($8637),a
2455  3E08    	    ld   a,$08
2457  82      	    add  a,d
2458  27      	    daa
2459  57      	    ld   d,a
245A  CD8C3A  	    call $3A8C
245D  3E01    	    ld   a,$01
245F  323E80  	    ld   ($803E),a
2462  3EE0    	    ld   a,$E0
2464  3200B8  	    ld   (watchdog),a
2467  C9      	    ret


2468  CD4742  	    call $4247
246B  C9      	    ret
246C  010000  	    ld   bc,$0000
246F  00      	    nop
2470  00      	    nop
2471  00      	    nop
2472  74      	    ld   (hl),h
2473  C20000  	    jp   nz,$0000
2476  FF      	    rst  $38
2477  FE01    	    cp   $01
2479  02      	    ld   (bc),a
247A  0102FF  	    ld   bc,$FF02
247D  FE05    	    cp   $05
247F  00      	    nop
2480  00      	    nop
2481  00      	    nop
2482  00      	    nop
2483  00      	    nop
2484  00      	    nop
2485  00      	    nop
2486  00      	    nop
2487  00      	    nop
2488  00      	    nop
2489  00      	    nop
248A  00      	    nop
248B  010000  	    ld   bc,$0000
248E  00      	    nop
248F  00      	    nop
2490  9B      	    sbc  a,e
2491  24      	    inc  h
2492  00      	    nop
2493  00      	    nop
2494  00      	    nop
2495  00      	    nop
2496  00      	    nop
2497  00      	    nop
2498  00      	    nop
2499  00      	    nop
249A  00      	    nop
249B  0F      	    rrca
249C  010F01  	    ld   bc,$010F
249F  04      	    inc  b
24A0  100F    	    djnz $24B1
24A2  02      	    ld   (bc),a
24A3  0F      	    rrca
24A4  02      	    ld   (bc),a
24A5  0F      	    rrca
24A6  02      	    ld   (bc),a
24A7  0F      	    rrca
24A8  010F01  	    ld   bc,$010F
24AB  6F      	    ld   l,a
24AC  08      	    ex   af,af'
24AD  04      	    inc  b
24AE  106F    	    djnz $251F
24B0  08      	    ex   af,af'
24B1  0F      	    rrca
24B2  02      	    ld   (bc),a
24B3  4F      	    ld   c,a
24B4  02      	    ld   (bc),a
24B5  2F      	    cpl
24B6  02      	    ld   (bc),a
24B7  0F      	    rrca
24B8  010F01  	    ld   bc,$010F
24BB  0F      	    rrca
24BC  08      	    ex   af,af'
24BD  0F      	    rrca
24BE  08      	    ex   af,af'
24BF  0F      	    rrca
24C0  010F01  	    ld   bc,$010F
24C3  6F      	    ld   l,a
24C4  08      	    ex   af,af'
24C5  3F      	    ccf
24C6  02      	    ld   (bc),a
24C7  1F      	    rra
24C8  02      	    ld   (bc),a
24C9  0F      	    rrca
24CA  02      	    ld   (bc),a
24CB  04      	    inc  b
24CC  100F    	    djnz $24DD
24CE  010410  	    ld   bc,$1004
24D1  0F      	    rrca
24D2  04      	    inc  b
24D3  0F      	    rrca
24D4  02      	    ld   (bc),a
24D5  6F      	    ld   l,a
24D6  02      	    ld   (bc),a
24D7  0F      	    rrca
24D8  08      	    ex   af,af'
24D9  0F      	    rrca
24DA  013F01  	    ld   bc,$013F
24DD  1F      	    rra
24DE  010F01  	    ld   bc,$010F
24E1  0F      	    rrca
24E2  010F04  	    ld   bc,$040F
24E5  0F      	    rrca
24E6  02      	    ld   (bc),a
24E7  0F      	    rrca
24E8  02      	    ld   (bc),a
24E9  0F      	    rrca
24EA  02      	    ld   (bc),a
24EB  0F      	    rrca
24EC  04      	    inc  b
24ED  0F      	    rrca
24EE  04      	    inc  b
24EF  0F      	    rrca
24F0  04      	    inc  b
24F1  0F      	    rrca
24F2  04      	    inc  b
24F3  FF      	    rst  $38
24F4  FF      	    rst  $38
24F5  FF      	    rst  $38
24F6  FF      	    rst  $38
24F7  FF      	    rst  $38
24F8  FF      	    rst  $38
24F9  FF      	    rst  $38
24FA  FF      	    rst  $38
24FB  FF      	    rst  $38
24FC  FF      	    rst  $38
24FD  23      	    inc  hl
24FE  5E      	    ld   e,(hl)
24FF  23      	    inc  hl
2500  56      	    ld   d,(hl)
2501  1A      	    ld   a,(de)
2502  FEFF    	    cp   $FF
2504  C20D25  	    jp   nz,$250D
2507  119B24  	    ld   de,$249B
250A  C30125  	    jp   $2501
250D  08      	    ex   af,af'
250E  13      	    inc  de
250F  1A      	    ld   a,(de)
2510  13      	    inc  de
2511  72      	    ld   (hl),d
2512  2B      	    dec  hl
2513  73      	    ld   (hl),e
2514  2B      	    dec  hl
2515  08      	    ex   af,af'
2516  77      	    ld   (hl),a
2517  08      	    ex   af,af'
2518  C37425  	    jp   $2574

                get_player_tile_pos:
251B  3A0784  	    ld   a,(player_y)
251E  0F      	    rrca
251F  0F      	    rrca
2520  0F      	    rrca
2521  E61F    	    and  $1F
2523  5F      	    ld   e,a
2524  3A0684  	    ld   a,(player_x)
2527  ED44    	    neg
2529  07      	    rlca
252A  07      	    rlca
252B  57      	    ld   d,a
252C  E6E0    	    and  $E0
252E  B3      	    or   e
252F  5F      	    ld   e,a
2530  7A      	    ld   a,d
2531  E603    	    and  $03
2533  57      	    ld   d,a
2534  210090  	    ld   hl,screen_ram
2537  19      	    add  hl,de
2538  C9      	    ret


2539  3A0084  	    ld   a,($8400)
253C  A7      	    and  a
253D  C25425  	    jp   nz,$2554
2540  110084  	    ld   de,$8400
2543  216C24  	    ld   hl,$246C
2546  012E00  	    ld   bc,$002E
2549  EDB0    	    ldir
254B  3EC9    	    ld   a,$C9
254D  3200B8  	    ld   (watchdog),a
2550  CD3810  	    call $1038
2553  C9      	    ret
2554  210284  	    ld   hl,$8402
2557  34      	    inc  (hl)
2558  CB46    	    bit  0,(hl)
255A  CAD228  	    jp   z,$28D2
255D  3A3080  	    ld   a,(is_playing)
2560  A7      	    and  a
2561  C27125  	    jp   nz,$2571
2564  212384  	    ld   hl,$8423
2567  7E      	    ld   a,(hl)
2568  35      	    dec  (hl)
2569  A7      	    and  a
256A  CAFD24  	    jp   z,$24FD
256D  AF      	    xor  a
256E  C37425  	    jp   $2574
2571  3A00A0  	    ld   a,(hw_in_0)
2574  320184  	    ld   (controls),a
2577  CD9825  	    call $2598
257A  3A2284  	    ld   a,($8422)
257D  A7      	    and  a
257E  C29425  	    jp   nz,$2594
2581  CDB626  	    call move_player
2584  3A0884  	    ld   a,(player_sp_x)
2587  47      	    ld   b,a
2588  3A0984  	    ld   a,(player_sp_y)
258B  B0      	    or   b
258C  C29425  	    jp   nz,$2594
258F  3E00    	    ld   a,$00
2591  321684  	    ld   ($8416),a
2594  CD5328  	    call $2853
2597  C9      	    ret

2598  3A1F84  	    ld   a,($841F)
259B  FE01    	    cp   $01
259D  CABC25  	    jp   z,$25BC
25A0  08      	    ex   af,af'
25A1  3E00    	    ld   a,$00
25A3  321684  	    ld   ($8416),a
25A6  08      	    ex   af,af'
25A7  FE02    	    cp   $02
25A9  CAC225  	    jp   z,$25C2
25AC  FE00    	    cp   $00
25AE  CA1926  	    jp   z,$2619
25B1  FE04    	    cp   $04
25B3  CA2D26  	    jp   z,$262D
25B6  FE05    	    cp   $05
25B8  CAB226  	    jp   z,$26B2
25BB  C9      	    ret
25BC  3E01    	    ld   a,$01
25BE  321684  	    ld   ($8416),a
25C1  C9      	    ret
25C2  212084  	    ld   hl,$8420
25C5  7E      	    ld   a,(hl)
25C6  A7      	    and  a
25C7  C2DF25  	    jp   nz,$25DF
25CA  3E01    	    ld   a,$01
25CC  77      	    ld   (hl),a
25CD  3E80    	    ld   a,$80
25CF  23      	    inc  hl
25D0  77      	    ld   (hl),a
25D1  3E01    	    ld   a,$01
25D3  322284  	    ld   ($8422),a
25D6  3E0C    	    ld   a,$0C
25D8  321384  	    ld   ($8413),a
25DB  CD1828  	    call $2818
25DE  C9      	    ret
25DF  23      	    inc  hl
25E0  35      	    dec  (hl)
25E1  7E      	    ld   a,(hl)
25E2  FE7E    	    cp   $7E
25E4  CAF725  	    jp   z,$25F7
25E7  FE40    	    cp   $40
25E9  CAFD25  	    jp   z,$25FD
25EC  FE30    	    cp   $30
25EE  CA0326  	    jp   z,$2603
25F1  FE20    	    cp   $20
25F3  CA0926  	    jp   z,$2609
25F6  C9      	    ret
25F7  3EE0    	    ld   a,$E0
25F9  3200B8  	    ld   (watchdog),a
25FC  C9      	    ret
25FD  3E0D    	    ld   a,$0D
25FF  321384  	    ld   ($8413),a
2602  C9      	    ret
2603  3E0E    	    ld   a,$0E
2605  321384  	    ld   ($8413),a
2608  C9      	    ret
2609  3E0F    	    ld   a,$0F
260B  321384  	    ld   ($8413),a
260E  3E00    	    ld   a,$00
2610  321F84  	    ld   ($841F),a
2613  3EA0    	    ld   a,$A0
2615  3200B8  	    ld   (watchdog),a
2618  C9      	    ret

    ;; reset somthing
2619  3E00    	    ld   a,$00
261B  320084  	    ld   ($8400),a
261E  322084  	    ld   ($8420),a
2621  320684  	    ld   (player_x),a
2624  320784  	    ld   (player_y),a
2627  3E01    	    ld   a,$01
2629  323380  	    ld   ($8033),a
262C  C9      	    ret

262D  212084  	    ld   hl,$8420
2630  7E      	    ld   a,(hl)
2631  A7      	    and  a
2632  C24726  	    jp   nz,$2647
2635  3E01    	    ld   a,$01
2637  77      	    ld   (hl),a
2638  322284  	    ld   ($8422),a
263B  3E00    	    ld   a,$00
263D  322984  	    ld   ($8429),a
2640  322A84  	    ld   ($842A),a
2643  CD1828  	    call $2818
2646  C9      	    ret

2647  3A2A84  	    ld   a,($842A)
264A  A7      	    and  a
264B  C27426  	    jp   nz,$2674
264E  3A0784  	    ld   a,(player_y)
2651  C602    	    add  a,$02
2653  320784  	    ld   (player_y),a
2656  FEE0    	    cp   $E0
2658  D28B26  	    jp   nc,$268B
265B  CD1B25  	    call get_player_tile_pos
265E  01E2FF  	    ld   bc,$FFE2
2661  09      	    add  hl,bc
2662  7E      	    ld   a,(hl)
2663  FE37    	    cp   TILE_WATER ; fell in water
2665  CA6E26  	    jp   z,player_fell_water
2668  FE38    	    cp   TILE_WATER_2
266A  CA6E26  	    jp   z,player_fell_water
266D  C9      	    ret

                player_fell_water: ; can you fall in water?
266E  3E01    	    ld   a,$01
2670  322A84  	    ld   ($842A),a ; hmm?
2673  C9      	    ret

2674  3A2984  	    ld   a,($8429)
2677  3C      	    inc  a
2678  322984  	    ld   ($8429),a
267B  FE02    	    cp   $02
267D  CA9626  	    jp   z,$2696
2680  FE0A    	    cp   $0A
2682  CA9C26  	    jp   z,$269C
2685  FE14    	    cp   $14
2687  CAA226  	    jp   z,$26A2
268A  C9      	    ret
268B  3E00    	    ld   a,$00
268D  322084  	    ld   ($8420),a
2690  3E02    	    ld   a,$02
2692  321F84  	    ld   ($841F),a
2695  C9      	    ret
2696  3E0D    	    ld   a,$0D
2698  321384  	    ld   ($8413),a
269B  C9      	    ret
269C  3E0E    	    ld   a,$0E
269E  321384  	    ld   ($8413),a
26A1  C9      	    ret
26A2  3E0F    	    ld   a,$0F
26A4  321384  	    ld   ($8413),a
26A7  3E00    	    ld   a,$00
26A9  321F84  	    ld   ($841F),a
26AC  3EA0    	    ld   a,$A0
26AE  3200B8  	    ld   (watchdog),a
26B1  C9      	    ret
26B2  CD0A3D  	    call $3D0A
26B5  C9      	    ret

                move_player:
26B6  3A0784  	    ld   a,(player_y)
26B9  E607    	    and  $07
26BB  FE02    	    cp   $02    ; only allow change dir ever 02 on y
26BD  C0      	    ret  nz
26BE  3A0684  	    ld   a,(player_x)
26C1  E607    	    and  $07
26C3  FE04    	    cp   $04    ; only allow change dir every 04 on x
26C5  C0      	    ret  nz
26C6  3A0184  	    ld   a,(controls)
26C9  0F      	    rrca
26CA  DA1027  	    jp   c,move_player_left
26CD  0F      	    rrca
26CE  DA5227  	    jp   c,move_player_right
26D1  0F      	    rrca
26D2  DA9427  	    jp   c,move_player_down
26D5  0F      	    rrca
26D6  DAD627  	    jp   c,move_player_up
26D9  00      	    nop
26DA  3A0684  	    ld   a,(player_x)
26DD  57      	    ld   d,a
26DE  3E14    	    ld   a,$14
26E0  0E20    	    ld   c,$20
26E2  0607    	    ld   b,$07
26E4  BA      	    cp   d
26E5  CAEE26  	    jp   z,$26EE
26E8  81      	    add  a,c
26E9  10F9    	    djnz $26E4
26EB  C3FF26  	    jp   $26FF
26EE  3A0784  	    ld   a,(player_y)
26F1  57      	    ld   d,a
26F2  3E22    	    ld   a,$22
26F4  0E20    	    ld   c,$20
26F6  0607    	    ld   b,$07
26F8  BA      	    cp   d
26F9  CA1828  	    jp   z,$2818
26FC  81      	    add  a,c
26FD  10F9    	    djnz $26F8
26FF  3A0884  	    ld   a,(player_sp_x)
2702  A7      	    and  a
2703  CA2928  	    jp   z,$2829
2706  3A0984  	    ld   a,(player_sp_y)
2709  A7      	    and  a
270A  CA3E28  	    jp   z,$283E
270D  C31828  	    jp   $2818

                move_player_left:
2710  3A0684  	    ld   a,(player_x)
2713  FE14    	    cp   $14
2715  CA2928  	    jp   z,$2829
2718  D22327  	    jp   nc,$2723
271B  3E14    	    ld   a,$14  ; min $14 x
271D  320684  	    ld   (player_x),a
2720  C32928  	    jp   $2829
2723  CD1B25  	    call get_player_tile_pos
2726  010200  	    ld   bc,$0002
2729  E5      	    push hl
272A  09      	    add  hl,bc
272B  3EFE    	    ld   a,$FE
272D  BE      	    cp   (hl)
272E  CA3727  	    jp   z,$2737
2731  3EEF    	    ld   a,$EF
2733  BE      	    cp   (hl)
2734  DA3B27  	    jp   c,$273B
2737  E1      	    pop  hl
2738  C32928  	    jp   $2829
273B  E1      	    pop  hl
273C  3A0B84  	    ld   a,($840B)
273F  320884  	    ld   (player_sp_x),a
2742  3E00    	    ld   a,$00
2744  320984  	    ld   (player_sp_y),a
2747  3E01    	    ld   a,$01
2749  320484  	    ld   ($8404),a
274C  3E00    	    ld   a,$00
274E  321484  	    ld   ($8414),a
2751  C9      	    ret

                move_player_right:
2752  3A0684  	    ld   a,(player_x)
2755  FED4    	    cp   $D4
2757  CA2928  	    jp   z,$2829
275A  DA6527  	    jp   c,$2765
275D  3ED4    	    ld   a,$D4  ; max $d4 x
275F  320684  	    ld   (player_x),a
2762  C32928  	    jp   $2829
2765  CD1B25  	    call get_player_tile_pos
2768  01C2FF  	    ld   bc,$FFC2
276B  E5      	    push hl
276C  09      	    add  hl,bc
276D  3EFE    	    ld   a,$FE
276F  BE      	    cp   (hl)
2770  CA7927  	    jp   z,$2779
2773  3EEF    	    ld   a,$EF
2775  BE      	    cp   (hl)
2776  DA7D27  	    jp   c,$277D
2779  E1      	    pop  hl
277A  C32928  	    jp   $2829
277D  E1      	    pop  hl
277E  3A0D84  	    ld   a,($840D)
2781  320884  	    ld   (player_sp_x),a
2784  3E00    	    ld   a,$00
2786  320984  	    ld   (player_sp_y),a
2789  3E02    	    ld   a,$02
278B  320484  	    ld   ($8404),a
278E  3E80    	    ld   a,$80
2790  321484  	    ld   ($8414),a
2793  C9      	    ret

                ;;
                move_player_down:
2794  3A0784  	    ld   a,(player_y)
2797  FEE2    	    cp   $E2
2799  CA3E28  	    jp   z,$283E
279C  DAA727  	    jp   c,$27A7
279F  3EE2    	    ld   a,$E2
27A1  320784  	    ld   (player_y),a
27A4  C33E28  	    jp   $283E
27A7  CD1B25  	    call get_player_tile_pos
27AA  01E3FF  	    ld   bc,$FFE3
27AD  E5      	    push hl
27AE  09      	    add  hl,bc
27AF  3EFE    	    ld   a,$FE
27B1  BE      	    cp   (hl)
27B2  CABB27  	    jp   z,$27BB
27B5  3EEF    	    ld   a,$EF
27B7  BE      	    cp   (hl)
27B8  DABF27  	    jp   c,$27BF
27BB  E1      	    pop  hl
27BC  C33E28  	    jp   $283E
27BF  E1      	    pop  hl
27C0  3A0F84  	    ld   a,($840F)
27C3  320984  	    ld   (player_sp_y),a
27C6  3E00    	    ld   a,$00
27C8  320884  	    ld   (player_sp_x),a
27CB  3E04    	    ld   a,$04
27CD  320484  	    ld   ($8404),a
27D0  3E04    	    ld   a,$04
27D2  321484  	    ld   ($8414),a
27D5  C9      	    ret

                move_player_up:
27D6  3A0784  	    ld   a,(player_y)
27D9  FE22    	    cp   $22
27DB  CA3E28  	    jp   z,$283E
27DE  D2E927  	    jp   nc,$27E9
27E1  3E22    	    ld   a,$22
27E3  320784  	    ld   (player_y),a
27E6  C33E28  	    jp   $283E
27E9  CD1B25  	    call get_player_tile_pos
27EC  01E1FF  	    ld   bc,$FFE1
27EF  E5      	    push hl
27F0  09      	    add  hl,bc
27F1  3EFE    	    ld   a,$FE
27F3  BE      	    cp   (hl)
27F4  CAFD27  	    jp   z,$27FD
27F7  3EEF    	    ld   a,$EF
27F9  BE      	    cp   (hl)
27FA  DA0128  	    jp   c,$2801
27FD  E1      	    pop  hl
27FE  C33E28  	    jp   $283E
2801  E1      	    pop  hl
2802  3A1184  	    ld   a,($8411)
2805  320984  	    ld   (player_sp_y),a
2808  3E00    	    ld   a,$00
280A  320884  	    ld   (player_sp_x),a
280D  3E08    	    ld   a,$08
280F  320484  	    ld   ($8404),a
2812  3E08    	    ld   a,$08
2814  321484  	    ld   ($8414),a
2817  C9      	    ret


2818  3E00    	    ld   a,$00
281A  320884  	    ld   (player_sp_x),a
281D  3E00    	    ld   a,$00
281F  320984  	    ld   (player_sp_y),a
2822  3E00    	    ld   a,$00
2824  321684  	    ld   ($8416),a
2827  00      	    nop
2828  C9      	    ret

2829  3E00    	    ld   a,$00
282B  320884  	    ld   (player_sp_x),a
282E  00      	    nop
282F  3A0984  	    ld   a,(player_sp_y)
2832  A7      	    and  a
2833  C8      	    ret  z
2834  FE80    	    cp   $80
2836  DA9427  	    jp   c,$2794
2839  C3D627  	    jp   $27D6
283C  00      	    nop
283D  C9      	    ret
283E  3E00    	    ld   a,$00
2840  320984  	    ld   (player_sp_y),a
2843  00      	    nop
2844  3A0884  	    ld   a,(player_sp_x)
2847  A7      	    and  a
2848  C8      	    ret  z
2849  FE80    	    cp   $80
284B  DA5227  	    jp   c,$2752
284E  C31027  	    jp   $2710
2851  00      	    nop
2852  C9      	    ret
2853  3A2284  	    ld   a,($8422)
2856  A7      	    and  a
2857  C2BB28  	    jp   nz,$28BB
285A  3A0884  	    ld   a,(player_sp_x)
285D  47      	    ld   b,a
285E  3A0684  	    ld   a,(player_x)
2861  80      	    add  a,b
2862  320684  	    ld   (player_x),a
2865  3A0984  	    ld   a,(player_sp_y)
2868  47      	    ld   b,a
2869  3A0784  	    ld   a,(player_y)
286C  80      	    add  a,b
286D  320784  	    ld   (player_y),a
2870  3A1684  	    ld   a,($8416)
2873  A7      	    and  a
2874  CABB28  	    jp   z,$28BB
2877  3A1784  	    ld   a,($8417)
287A  3C      	    inc  a
287B  CB47    	    bit  0,a
287D  CAAC28  	    jp   z,$28AC
2880  3A1884  	    ld   a,($8418)
2883  3C      	    inc  a
2884  E603    	    and  $03
2886  321884  	    ld   ($8418),a
2889  FE00    	    cp   $00
288B  C29328  	    jp   nz,$2893
288E  3E00    	    ld   a,$00
2890  C3A928  	    jp   $28A9
2893  FE01    	    cp   $01
2895  C29D28  	    jp   nz,$289D
2898  3E01    	    ld   a,$01
289A  C3A928  	    jp   $28A9
289D  FE02    	    cp   $02
289F  C2A728  	    jp   nz,$28A7
28A2  3E02    	    ld   a,$02
28A4  C3A928  	    jp   $28A9
28A7  3E03    	    ld   a,$03
28A9  321584  	    ld   ($8415),a
28AC  3A1484  	    ld   a,($8414)
28AF  E6FC    	    and  $FC
28B1  47      	    ld   b,a
28B2  3A1884  	    ld   a,($8418)
28B5  E603    	    and  $03
28B7  B0      	    or   b
28B8  321384  	    ld   ($8413),a
28BB  210080  	    ld   hl,ram_start
28BE  3A0684  	    ld   a,(player_x)
28C1  77      	    ld   (hl),a
28C2  23      	    inc  hl
28C3  3A1384  	    ld   a,($8413)
28C6  77      	    ld   (hl),a
28C7  23      	    inc  hl
28C8  3A1284  	    ld   a,($8412)
28CB  77      	    ld   (hl),a
28CC  23      	    inc  hl
28CD  3A0784  	    ld   a,(player_y)
28D0  77      	    ld   (hl),a
28D1  C9      	    ret
28D2  3A0784  	    ld   a,(player_y)
28D5  E607    	    and  $07
28D7  FE02    	    cp   $02
28D9  C0      	    ret  nz
28DA  3A0684  	    ld   a,(player_x)
28DD  E607    	    and  $07
28DF  FE04    	    cp   $04
28E1  C0      	    ret  nz
28E2  CD1B25  	    call get_player_tile_pos
28E5  E5      	    push hl
28E6  01E2FF  	    ld   bc,$FFE2
28E9  09      	    add  hl,bc
28EA  7E      	    ld   a,(hl)
28EB  FEF5    	    cp   $F5
28ED  C2F528  	    jp   nz,$28F5
28F0  3E01    	    ld   a,$01
28F2  322D84  	    ld   ($842D),a
28F5  E1      	    pop  hl
28F6  3A2284  	    ld   a,($8422)
28F9  A7      	    and  a
28FA  C22229  	    jp   nz,$2922
28FD  E5      	    push hl
28FE  CD4C29  	    call $294C
2901  E1      	    pop  hl
2902  E5      	    push hl
2903  CD2329  	    call $2923
2906  E1      	    pop  hl
2907  E5      	    push hl
2908  CDA129  	    call $29A1
290B  E1      	    pop  hl
290C  E5      	    push hl
290D  CDAF29  	    call $29AF
2910  E1      	    pop  hl
2911  E5      	    push hl
2912  CDC829  	    call $29C8
2915  E1      	    pop  hl
2916  3AE080  	    ld   a,($80E0)
2919  A7      	    and  a
291A  C22229  	    jp   nz,$2922
291D  E5      	    push hl
291E  CD5A29  	    call $295A
2921  E1      	    pop  hl
2922  C9      	    ret

2923  01E1FF  	    ld   bc,$FFE1
2926  09      	    add  hl,bc
2927  7E      	    ld   a,(hl)
2928  FE39    	    cp   $39
292A  CA3029  	    jp   z,$2930
292D  FE3A    	    cp   $3A
292F  C0      	    ret  nz
2930  3A8086  	    ld   a,(bomb_placed)
2933  A7      	    and  a
2934  C0      	    ret  nz
2935  3AC185  	    ld   a,($85C1)
2938  A7      	    and  a
2939  C0      	    ret  nz
293A  3E01    	    ld   a,$01
293C  32C185  	    ld   ($85C1),a
293F  3A0684  	    ld   a,(player_x)
2942  32C285  	    ld   ($85C2),a
2945  3A0784  	    ld   a,(player_y)
2948  32C385  	    ld   ($85C3),a
294B  C9      	    ret
294C  01E2FF  	    ld   bc,$FFE2
294F  09      	    add  hl,bc
2950  7E      	    ld   a,(hl)
2951  FEFE    	    cp   $FE
2953  C0      	    ret  nz
2954  3E04    	    ld   a,$04
2956  321F84  	    ld   ($841F),a
2959  C9      	    ret
295A  01E2FF  	    ld   bc,$FFE2
295D  09      	    add  hl,bc
295E  7E      	    ld   a,(hl)
295F  FEFF    	    cp   $FF
2961  C0      	    ret  nz
2962  3A2D84  	    ld   a,($842D)
2965  A7      	    and  a
2966  C8      	    ret  z
2967  3A0784  	    ld   a,(player_y)
296A  FE70    	    cp   $70
296C  D27D29  	    jp   nc,$297D
296F  0E01    	    ld   c,$01
2971  3A1484  	    ld   a,($8414)
2974  07      	    rlca
2975  D28B29  	    jp   nc,$298B
2978  0E02    	    ld   c,$02
297A  C38B29  	    jp   $298B
297D  0E21    	    ld   c,$21
297F  3A1484  	    ld   a,($8414)
2982  07      	    rlca
2983  D28B29  	    jp   nc,$298B
2986  0E22    	    ld   c,$22
2988  C38B29  	    jp   $298B
298B  79      	    ld   a,c
298C  32E080  	    ld   ($80E0),a
298F  A7      	    and  a
2990  C8      	    ret  z
2991  3E05    	    ld   a,$05
2993  321F84  	    ld   ($841F),a
2996  3E01    	    ld   a,$01
2998  322284  	    ld   ($8422),a
299B  3E00    	    ld   a,$00
299D  322D84  	    ld   ($842D),a
29A0  C9      	    ret
29A1  01E2FF  	    ld   bc,$FFE2
29A4  09      	    add  hl,bc
29A5  7E      	    ld   a,(hl)
29A6  FEFC    	    cp   $FC
29A8  C0      	    ret  nz
29A9  3E01    	    ld   a,$01
29AB  32C080  	    ld   ($80C0),a
29AE  C9      	    ret
29AF  01E2FF  	    ld   bc,$FFE2
29B2  09      	    add  hl,bc
29B3  7E      	    ld   a,(hl)
29B4  FEF9    	    cp   $F9
29B6  C0      	    ret  nz
29B7  3AA080  	    ld   a,(carrying_1)
29BA  A7      	    and  a
29BB  C8      	    ret  z
29BC  3AA280  	    ld   a,(carrying_3)
29BF  FE01    	    cp   $01
29C1  C0      	    ret  nz
29C2  3E02    	    ld   a,$02
29C4  32A280  	    ld   (carrying_3),a
29C7  C9      	    ret
29C8  3AA080  	    ld   a,(carrying_1)
29CB  A7      	    and  a
29CC  C0      	    ret  nz
29CD  01E1FF  	    ld   bc,$FFE1
29D0  09      	    add  hl,bc
29D1  7E      	    ld   a,(hl)
29D2  FEDC    	    cp   $DC
29D4  D8      	    ret  c
29D5  FEF0    	    cp   $F0
29D7  D0      	    ret  nc
29D8  0E02    	    ld   c,$02
29DA  CDB23E  	    call $3EB2
29DD  229C80  	    ld   ($809C),hl
29E0  7E      	    ld   a,(hl)
29E1  167A    	    ld   d,$7A
29E3  FEE1    	    cp   $E1
29E5  CA1D2A  	    jp   z,$2A1D
29E8  FEE3    	    cp   $E3
29EA  CA1D2A  	    jp   z,$2A1D
29ED  167C    	    ld   d,$7C
29EF  FEE5    	    cp   $E5
29F1  CA1D2A  	    jp   z,$2A1D
29F4  FEE7    	    cp   $E7
29F6  CA1D2A  	    jp   z,$2A1D
29F9  167E    	    ld   d,$7E
29FB  FEE9    	    cp   $E9
29FD  CA1D2A  	    jp   z,$2A1D
2A00  FEEB    	    cp   $EB
2A02  CA1D2A  	    jp   z,$2A1D
2A05  167D    	    ld   d,$7D
2A07  FEED    	    cp   $ED
2A09  CA1D2A  	    jp   z,$2A1D
2A0C  FEEF    	    cp   $EF
2A0E  CA1D2A  	    jp   z,$2A1D
2A11  167B    	    ld   d,$7B
2A13  FEDD    	    cp   $DD
2A15  CA1D2A  	    jp   z,$2A1D
2A18  FEDF    	    cp   $DF
2A1A  CA1D2A  	    jp   z,$2A1D
2A1D  CBD4    	    set  2,h
2A1F  5E      	    ld   e,(hl)
2A20  219E80  	    ld   hl,$809E
2A23  73      	    ld   (hl),e
2A24  23      	    inc  hl
2A25  72      	    ld   (hl),d
2A26  23      	    inc  hl
2A27  3601    	    ld   (hl),$01
2A29  E5      	    push hl
2A2A  D5      	    push de
2A2B  C5      	    push bc
2A2C  F5      	    push af
2A2D  CD623F  	    call $3F62
2A30  214080  	    ld   hl,$8040
2A33  114E2A  	    ld   de,$2A4E
2A36  0603    	    ld   b,$03
2A38  3601    	    ld   (hl),$01
2A3A  23      	    inc  hl
2A3B  AF      	    xor  a
2A3C  1A      	    ld   a,(de)
2A3D  8E      	    adc  a,(hl)
2A3E  27      	    daa
2A3F  77      	    ld   (hl),a
2A40  23      	    inc  hl
2A41  13      	    inc  de
2A42  10F8    	    djnz $2A3C
2A44  3E84    	    ld   a,$84
2A46  3200B8  	    ld   (watchdog),a
2A49  F1      	    pop  af
2A4A  C1      	    pop  bc
2A4B  D1      	    pop  de
2A4C  E1      	    pop  hl
2A4D  C9      	    ret
2A4E  00      	    nop
2A4F  02      	    ld   (bc),a
2A50  00      	    nop
2A51  210885  	    ld   hl,$8508
2A54  7E      	    ld   a,(hl)
2A55  A7      	    and  a
2A56  C2702A  	    jp   nz,$2A70
2A59  3601    	    ld   (hl),$01
2A5B  212885  	    ld   hl,$8528
2A5E  015A2B  	    ld   bc,$2B5A
2A61  CDCF31  	    call $31CF
2A64  212D85  	    ld   hl,$852D
2A67  01282B  	    ld   bc,$2B28
2A6A  CDCF31  	    call $31CF
2A6D  CD1F2B  	    call $2B1F
_
2A70  212985  	    ld   hl,$8529
2A73  110085  	    ld   de,cat1_enable
2A76  01EFFF  	    ld   bc,$FFEF
2A79  1A      	    ld   a,(de)
2A7A  A7      	    and  a
2A7B  CCF12A  	    call z,$2AF1
2A7E  210A85  	    ld   hl,$850A
2A81  7E      	    ld   a,(hl)
2A82  A7      	    and  a
2A83  C29D2A  	    jp   nz,$2A9D
2A86  3601    	    ld   (hl),$01
2A88  216885  	    ld   hl,$8568
2A8B  01B02B  	    ld   bc,$2BB0
2A8E  CDCF31  	    call $31CF
2A91  216D85  	    ld   hl,$856D
2A94  01282B  	    ld   bc,$2B28
2A97  CDCF31  	    call $31CF
2A9A  CD1F2B  	    call $2B1F
2A9D  216985  	    ld   hl,$8569
2AA0  110485  	    ld   de,cat2_enable
2AA3  01EFFF  	    ld   bc,$FFEF ; - 16
2AA6  1A      	    ld   a,(de)
2AA7  A7      	    and  a
2AA8  CCF12A  	    call z,$2AF1
2AAB  210B85  	    ld   hl,$850B
2AAE  7E      	    ld   a,(hl)
2AAF  A7      	    and  a
2AB0  C2CA2A  	    jp   nz,$2ACA
2AB3  3601    	    ld   (hl),$01
2AB5  218885  	    ld   hl,$8588
2AB8  01062C  	    ld   bc,$2C06
2ABB  CDCF31  	    call $31CF
2ABE  218D85  	    ld   hl,$858D
2AC1  01282B  	    ld   bc,$2B28
2AC4  CDCF31  	    call $31CF
2AC7  CD1F2B  	    call $2B1F
2ACA  218985  	    ld   hl,$8589
2ACD  110685  	    ld   de,cat3_enable
2AD0  01EFFF  	    ld   bc,$FFEF ; -16
2AD3  1A      	    ld   a,(de)
2AD4  A7      	    and  a
2AD5  CCF12A  	    call z,$2AF1
2AD8  210085  	    ld   hl,cat1_enable
2ADB  7E      	    ld   a,(hl)
2ADC  A7      	    and  a
2ADD  C43C2B  	    call nz,setup_cat_1
2AE0  210485  	    ld   hl,cat2_enable
2AE3  7E      	    ld   a,(hl)
2AE4  A7      	    and  a
2AE5  C4922B  	    call nz,setup_cat_2
2AE8  210685  	    ld   hl,cat3_enable
2AEB  7E      	    ld   a,(hl)
2AEC  A7      	    and  a
2AED  C4E82B  	    call nz,setup_cat_3
2AF0  C9      	    ret

2AF1  C5      	    push bc
2AF2  46      	    ld   b,(hl)
2AF3  2B      	    dec  hl
2AF4  7E      	    ld   a,(hl)
2AF5  B0      	    or   b
2AF6  C1      	    pop  bc
2AF7  C2132B  	    jp   nz,$2B13
2AFA  09      	    add  hl,bc
2AFB  7E      	    ld   a,(hl)
2AFC  FE03    	    cp   $03
2AFE  C20F2B  	    jp   nz,$2B0F
2B01  23      	    inc  hl
2B02  7E      	    ld   a,(hl)
2B03  E607    	    and  $07
2B05  FE04    	    cp   $04
2B07  C0      	    ret  nz
2B08  23      	    inc  hl
2B09  7E      	    ld   a,(hl)
2B0A  E607    	    and  $07
2B0C  FE02    	    cp   $02
2B0E  C0      	    ret  nz
2B0F  3E01    	    ld   a,$01
2B11  12      	    ld   (de),a
2B12  C9      	    ret
2B13  7E      	    ld   a,(hl)
2B14  A7      	    and  a
2B15  CA1A2B  	    jp   z,$2B1A
2B18  35      	    dec  (hl)
2B19  C9      	    ret
2B1A  363C    	    ld   (hl),$3C
2B1C  23      	    inc  hl
2B1D  35      	    dec  (hl)
2B1E  C9      	    ret
2B1F  AF      	    xor  a
2B20  23      	    inc  hl
2B21  77      	    ld   (hl),a
2B22  01E8FF  	    ld   bc,$FFE8
2B25  09      	    add  hl,bc
2B26  77      	    ld   (hl),a
2B27  C9      	    ret
2B28  3C      	    inc  a
2B29  78      	    ld   a,b
2B2A  3C      	    inc  a
2B2B  64      	    ld   h,h
2B2C  3C      	    inc  a
2B2D  5A      	    ld   e,d
2B2E  3C      	    inc  a
2B2F  46      	    ld   b,(hl)
2B30  3C      	    inc  a
2B31  3C      	    inc  a
2B32  3C      	    inc  a
2B33  323C28  	    ld   ($283C),a
2B36  3C      	    inc  a
2B37  1E3C    	    ld   e,$3C
2B39  14      	    inc  d
2B3A  3C      	    inc  a
2B3B  00      	    nop

                setup_cat_1:
2B3C  23      	    inc  hl
2B3D  7E      	    ld   a,(hl) ; 8501: cat1_active
2B3E  A7      	    and  a
2B3F  C26E2B  	    jp   nz,$2B6E
2B42  3A3E80  	    ld   a,($803E)
2B45  A7      	    and  a
2B46  C0      	    ret  nz
2B47  3601    	    ld   (hl),$01
2B49  111085  	    ld   de,cat1_bytes
2B4C  21752B  	    ld   hl,cat1_init_data
2B4F  011D00  	    ld   bc,$001D ; 29 bytes
2B52  EDB0    	    ldir          ; copy them
2B54  3E87    	    ld   a,$87
2B56  3200B8  	    ld   (watchdog),a
2B59  C9      	    ret
    ;; data?
2B5A  3002    	    jr   nc,$2B5E
2B5C  3002    	    jr   nc,$2B60
2B5E  3002    	    jr   nc,$2B62
2B60  34      	    inc  (hl)
2B61  013000  	    ld   bc,$0030
2B64  3000    	    jr   nc,$2B66
2B66  3000    	    jr   nc,$2B68
2B68  3000    	    jr   nc,$2B6A
2B6A  1000    	    djnz $2B6C
2B6C  1000    	    djnz $2B6E
2B6E  211785  	    ld   hl,$8517
2B71  CD3E2C  	    call $2C3E
2B74  C9      	    ret

                cat1_init_data:
2B75                db $00, $00, $00, $05, $1C, $00, $00, $01
2B7D                db $B4, $42, $00, $00, $00, $FF, $01, $00
2B85                db $01, $FF, $00, $00, $00, $00, $00, $00
2B8D                db $00, $00, $00, $01, $00

                setup_cat_2:
2B92  23       	    inc  hl
2B93  7E      	    ld   a,(hl)
2B94  A7      	    and  a
2B95  C2C42B  	    jp   nz,$2BC4
2B98  3A3E80  	    ld   a,($803E)
2B9B  A7      	    and  a
2B9C  C0      	    ret  nz
2B9D  3601    	    ld   (hl),$01
2B9F  115085  	    ld   de,cat2_bytes
2BA2  21CB2B  	    ld   hl,cat2_init_data
2BA5  011D00  	    ld   bc,$001D ; 29 bytes
2BA8  EDB0    	    ldir
2BAA  3E87    	    ld   a,$87
2BAC  3200B8  	    ld   (watchdog),a
2BAF  C9      	    ret
2BB0  14      	    inc  d
2BB1  1614    	    ld   d,$14
2BB3  14      	    inc  d
2BB4  14      	    inc  d
2BB5  0F      	    rrca
2BB6  14      	    inc  d
2BB7  0D      	    dec  c
2BB8  00      	    nop
2BB9  0B      	    dec  bc
2BBA  00      	    nop
2BBB  09      	    add  hl,bc
2BBC  1806    	    jr   $2BC4
2BBE  2805    	    jr   z,$2BC5
2BC0  2805    	    jr   z,$2BC7
2BC2  1004    	    djnz $2BC8
2BC4  215785  	    ld   hl,$8557
2BC7  CD3E2C  	    call $2C3E
2BCA  C9      	    ret

                cat2_init_data:
2BCB  00      	    nop
2BCC  00      	    nop
2BCD  00      	    nop
2BCE  0D      	    dec  c
2BCF  1C      	    inc  e
2BD0  00      	    nop
2BD1  00      	    nop
2BD2  013442  	    ld   bc,$4234
2BD5  00      	    nop
2BD6  00      	    nop
2BD7  00      	    nop
2BD8  FF      	    rst  $38
2BD9  010001  	    ld   bc,$0100
2BDC  FF      	    rst  $38
2BDD  00      	    nop
2BDE  00      	    nop
2BDF  00      	    nop
2BE0  00      	    nop
2BE1  00      	    nop
2BE2  00      	    nop
2BE3  00      	    nop
2BE4  00      	    nop
2BE5  00      	    nop
2BE6  01            byte 01
2BE7  00            nop

                setup_cat_3:
2BE8  23  	        inc  hl
2BE9  7E      	    ld   a,(hl)
2BEA  A7      	    and  a
2BEB  C21A2C  	    jp   nz,$2C1A
2BEE  3A3E80  	    ld   a,($803E)
2BF1  A7      	    and  a
2BF2  C0      	    ret  nz
2BF3  3601    	    ld   (hl),$01
2BF5  117085  	    ld   de,$8570
2BF8  21212C  	    ld   hl,cat3_init_data
2BFB  011D00  	    ld   bc,$001D
2BFE  EDB0    	    ldir
2C00  3E87    	    ld   a,$87
2C02  3200B8  	    ld   (watchdog),a
2C05  C9      	    ret
2C06  24      	    inc  h
2C07  0624    	    ld   b,$24
2C09  0614    	    ld   b,$14
2C0B  02      	    ld   (bc),a
2C0C  00      	    nop
2C0D  02      	    ld   (bc),a
2C0E  3000    	    jr   nc,$2C10
2C10  3000    	    jr   nc,$2C12
2C12  3000    	    jr   nc,$2C14
2C14  3000    	    jr   nc,$2C16
2C16  1000    	    djnz $2C18
2C18  1000    	    djnz $2C1A
2C1A  217785  	    ld   hl,$8577
2C1D  CD3E2C  	    call $2C3E
2C20  C9      	    ret

                cat3_init_data:
2C21  00      	    nop
2C22  00      	    nop
2C23  00      	    nop
2C24  111C00  	    ld   de,$001C
2C27  00      	    nop
2C28  0134C2  	    ld   bc,$C234
2C2B  00      	    nop
2C2C  00      	    nop
2C2D  00      	    nop
2C2E  FF      	    rst  $38
2C2F  010001  	    ld   bc,$0100
2C32  FF      	    rst  $38
2C33  00      	    nop
2C34  00      	    nop
2C35  00      	    nop
2C36  00      	    nop
2C37  00      	    nop
2C38  00      	    nop
2C39  00      	    nop
2C3A  00      	    nop
2C3B  00      	    nop
2C3C  0100          byte 01,00

2C3E  E5  	        push hl
2C3F  EB      	    ex   de,hl
2C40  211800  	    ld   hl,$0018
2C43  19      	    add  hl,de
2C44  54      	    ld   d,h
2C45  5D      	    ld   e,l
2C46  2B      	    dec  hl
2C47  1A      	    ld   a,(de)
2C48  A7      	    and  a
2C49  01EAFF  	    ld   bc,$FFEA
2C4C  CCF12A  	    call z,$2AF1
2C4F  E1      	    pop  hl
2C50  7E      	    ld   a,(hl)
2C51  FE01    	    cp   $01
2C53  CA702C  	    jp   z,$2C70
2C56  FE03    	    cp   $03
2C58  CAB62C  	    jp   z,$2CB6
2C5B  FE04    	    cp   $04
2C5D  CADD30  	    jp   z,$30DD
2C60  FE05    	    cp   $05
2C62  CA1C31  	    jp   z,$311C
2C65  FE06    	    cp   $06
2C67  CA5031  	    jp   z,$3150
2C6A  FE07    	    cp   $07
2C6C  CA8431  	    jp   z,$3184
2C6F  C9      	    ret
2C70  3A3E80  	    ld   a,($803E)
2C73  A7      	    and  a
2C74  C0      	    ret  nz
2C75  EB      	    ex   de,hl
2C76  42      	    ld   b,d
2C77  4B      	    ld   c,e
2C78  211300  	    ld   hl,$0013
2C7B  19      	    add  hl,de
2C7C  1B      	    dec  de
2C7D  1B      	    dec  de
2C7E  1B      	    dec  de
2C7F  1B      	    dec  de
2C80  34      	    inc  (hl)
2C81  7E      	    ld   a,(hl)
2C82  FE80    	    cp   $80
2C84  D2982C  	    jp   nc,$2C98
2C87  E61F    	    and  $1F
2C89  FE10    	    cp   $10
2C8B  DA922C  	    jp   c,$2C92
2C8E  CD9C30  	    call $309C
2C91  C9      	    ret
2C92  061F    	    ld   b,$1F
2C94  CDA22C  	    call $2CA2
2C97  C9      	    ret
2C98  23      	    inc  hl
2C99  3600    	    ld   (hl),$00
2C9B  3E03    	    ld   a,$03
2C9D  02      	    ld   (bc),a
2C9E  CD9C30  	    call $309C
2CA1  C9      	    ret
2CA2  1A      	    ld   a,(de)
2CA3  210500  	    ld   hl,$0005
2CA6  19      	    add  hl,de
2CA7  EB      	    ex   de,hl
2CA8  6F      	    ld   l,a
2CA9  2680    	    ld   h,$80
2CAB  70      	    ld   (hl),b
2CAC  2B      	    dec  hl
2CAD  1A      	    ld   a,(de)
2CAE  77      	    ld   (hl),a
2CAF  23      	    inc  hl
2CB0  23      	    inc  hl
2CB1  23      	    inc  hl
2CB2  13      	    inc  de
2CB3  1A      	    ld   a,(de)
2CB4  77      	    ld   (hl),a
2CB5  C9      	    ret
2CB6  EB      	    ex   de,hl
2CB7  211000  	    ld   hl,$0010
2CBA  19      	    add  hl,de
2CBB  7E      	    ld   a,(hl)
2CBC  A7      	    and  a
2CBD  CAC62C  	    jp   z,$2CC6
2CC0  35      	    dec  (hl)
2CC1  EB      	    ex   de,hl
2CC2  23      	    inc  hl
2CC3  C3B52D  	    jp   $2DB5
2CC6  13      	    inc  de
2CC7  01FBFF  	    ld   bc,$FFFB
2CCA  09      	    add  hl,bc
2CCB  EB      	    ex   de,hl
2CCC  0607    	    ld   b,$07
2CCE  3E14    	    ld   a,$14
2CD0  BE      	    cp   (hl)
2CD1  CADC2C  	    jp   z,$2CDC
2CD4  C620    	    add  a,$20
2CD6  10F8    	    djnz $2CD0
2CD8  23      	    inc  hl
2CD9  C3B42D  	    jp   $2DB4
2CDC  23      	    inc  hl
2CDD  0607    	    ld   b,$07
2CDF  3E22    	    ld   a,$22
2CE1  BE      	    cp   (hl)
2CE2  CA492D  	    jp   z,$2D49
2CE5  C620    	    add  a,$20
2CE7  10F8    	    djnz $2CE1
2CE9  C3B42D  	    jp   $2DB4
2CEC  ED5F    	    ld   a,r
2CEE  E603    	    and  $03
2CF0  FE01    	    cp   $01
2CF2  C2F82C  	    jp   nz,$2CF8
2CF5  3601    	    ld   (hl),$01
2CF7  C9      	    ret
2CF8  FE02    	    cp   $02
2CFA  C2002D  	    jp   nz,$2D00
2CFD  3602    	    ld   (hl),$02
2CFF  C9      	    ret
2D00  FE03    	    cp   $03
2D02  C2082D  	    jp   nz,$2D08
2D05  3604    	    ld   (hl),$04
2D07  C9      	    ret
2D08  FE00    	    cp   $00
2D0A  C0      	    ret  nz
2D0B  3608    	    ld   (hl),$08
2D0D  C9      	    ret
2D0E  42      	    ld   b,d
2D0F  4B      	    ld   c,e
2D10  54      	    ld   d,h
2D11  5D      	    ld   e,l
2D12  1B      	    dec  de
2D13  EB      	    ex   de,hl
2D14  0A      	    ld   a,(bc)
2D15  A7      	    and  a
2D16  C2312D  	    jp   nz,$2D31
2D19  3E01    	    ld   a,$01
2D1B  02      	    ld   (bc),a
2D1C  3A0380  	    ld   a,($8003)
2D1F  BE      	    cp   (hl)
2D20  2B      	    dec  hl
2D21  EB      	    ex   de,hl
2D22  CA2E2D  	    jp   z,$2D2E
2D25  DA2B2D  	    jp   c,$2D2B
2D28  3604    	    ld   (hl),$04
2D2A  C9      	    ret
2D2B  3608    	    ld   (hl),$08
2D2D  C9      	    ret
2D2E  3600    	    ld   (hl),$00
2D30  C9      	    ret
2D31  2B      	    dec  hl
2D32  3E00    	    ld   a,$00
2D34  02      	    ld   (bc),a
2D35  3A0080  	    ld   a,(ram_start)
2D38  BE      	    cp   (hl)
2D39  EB      	    ex   de,hl
2D3A  CA462D  	    jp   z,$2D46
2D3D  DA432D  	    jp   c,$2D43
2D40  3602    	    ld   (hl),$02
2D42  C9      	    ret
2D43  3601    	    ld   (hl),$01
2D45  C9      	    ret
2D46  3600    	    ld   (hl),$00
2D48  C9      	    ret
2D49  E5      	    push hl
2D4A  011300  	    ld   bc,$0013
2D4D  09      	    add  hl,bc
2D4E  34      	    inc  (hl)
2D4F  44      	    ld   b,h
2D50  4D      	    ld   c,l
2D51  E1      	    pop  hl
2D52  23      	    inc  hl
2D53  7D      	    ld   a,l
2D54  E6F0    	    and  $F0
2D56  FE10    	    cp   $10
2D58  C26D2D  	    jp   nz,$2D6D
2D5B  0A      	    ld   a,(bc)
2D5C  E603    	    and  $03
2D5E  FE00    	    cp   $00
2D60  C40E2D  	    call nz,$2D0E
2D63  EB      	    ex   de,hl
2D64  210D00  	    ld   hl,$000D
2D67  19      	    add  hl,de
2D68  3630    	    ld   (hl),$30
2D6A  C3B22D  	    jp   $2DB2
2D6D  FE30    	    cp   $30
2D6F  C2842D  	    jp   nz,$2D84
2D72  0A      	    ld   a,(bc)
2D73  E603    	    and  $03
2D75  FE02    	    cp   $02
2D77  C40E2D  	    call nz,$2D0E
2D7A  EB      	    ex   de,hl
2D7B  210D00  	    ld   hl,$000D
2D7E  19      	    add  hl,de
2D7F  3610    	    ld   (hl),$10
2D81  C3B22D  	    jp   $2DB2
2D84  FE50    	    cp   $50
2D86  C29B2D  	    jp   nz,$2D9B
2D89  0A      	    ld   a,(bc)
2D8A  E607    	    and  $07
2D8C  FE05    	    cp   $05
2D8E  C40E2D  	    call nz,$2D0E
2D91  EB      	    ex   de,hl
2D92  210D00  	    ld   hl,$000D
2D95  19      	    add  hl,de
2D96  3620    	    ld   (hl),$20
2D98  C3B22D  	    jp   $2DB2
2D9B  FE70    	    cp   $70
2D9D  00      	    nop
2D9E  00      	    nop
2D9F  00      	    nop
2DA0  C29E2D  	    jp   nz,$2D9E
2DA3  0A      	    ld   a,(bc)
2DA4  E607    	    and  $07
2DA6  FE07    	    cp   $07
2DA8  C40E2D  	    call nz,$2D0E
2DAB  EB      	    ex   de,hl
2DAC  210D00  	    ld   hl,$000D
2DAF  19      	    add  hl,de
2DB0  3610    	    ld   (hl),$10
2DB2  EB      	    ex   de,hl
2DB3  2B      	    dec  hl
2DB4  2B      	    dec  hl
2DB5  54      	    ld   d,h
2DB6  5D      	    ld   e,l
2DB7  7E      	    ld   a,(hl)
2DB8  23      	    inc  hl
2DB9  E607    	    and  $07
2DBB  FE04    	    cp   $04
2DBD  C24330  	    jp   nz,$3043
2DC0  7E      	    ld   a,(hl)
2DC1  E607    	    and  $07
2DC3  FE02    	    cp   $02
2DC5  C24330  	    jp   nz,$3043
2DC8  EB      	    ex   de,hl
2DC9  CDB330  	    call get_tile_pos
2DCC  01E2FF  	    ld   bc,$FFE2
2DCF  09      	    add  hl,bc
2DD0  3EFE    	    ld   a,$FE
2DD2  BE      	    cp   (hl)
2DD3  C2F22D  	    jp   nz,$2DF2
2DD6  1B      	    dec  de
2DD7  3E95    	    ld   a,$95
2DD9  3200B8  	    ld   (watchdog),a
2DDC  3E04    	    ld   a,$04
2DDE  12      	    ld   (de),a
2DDF  211400  	    ld   hl,$0014
2DE2  19      	    add  hl,de
2DE3  3601    	    ld   (hl),$01
2DE5  21FDFF  	    ld   hl,$FFFD
2DE8  19      	    add  hl,de
2DE9  361C    	    ld   (hl),$1C
2DEB  210300  	    ld   hl,$0003
2DEE  19      	    add  hl,de
2DEF  3600    	    ld   (hl),$00
2DF1  13      	    inc  de
2DF2  EB      	    ex   de,hl
2DF3  23      	    inc  hl
2DF4  54      	    ld   d,h
2DF5  5D      	    ld   e,l
2DF6  23      	    inc  hl
2DF7  1B      	    dec  de
2DF8  7E      	    ld   a,(hl)
2DF9  0F      	    rrca
2DFA  DAC42E  	    jp   c,$2EC4
2DFD  0F      	    rrca
2DFE  DA102F  	    jp   c,$2F10
2E01  0F      	    rrca
2E02  DA5C2F  	    jp   c,$2F5C
2E05  0F      	    rrca
2E06  DAAA2F  	    jp   c,$2FAA
2E09  EB      	    ex   de,hl
2E0A  21FCFF  	    ld   hl,$FFFC
2E0D  19      	    add  hl,de
2E0E  35      	    dec  (hl)
2E0F  EB      	    ex   de,hl
2E10  23      	    inc  hl
2E11  23      	    inc  hl
2E12  3E00    	    ld   a,$00
2E14  77      	    ld   (hl),a
2E15  23      	    inc  hl
2E16  23      	    inc  hl
2E17  23      	    inc  hl
2E18  77      	    ld   (hl),a
2E19  C35D30  	    jp   $305D
2E1C  13      	    inc  de
2E1D  13      	    inc  de
2E1E  1A      	    ld   a,(de)
2E1F  FE03    	    cp   $03
2E21  D2742E  	    jp   nc,$2E74
2E24  ED5F    	    ld   a,r
2E26  E60F    	    and  $0F
2E28  FE02    	    cp   $02
2E2A  DA442E  	    jp   c,$2E44
2E2D  FE09    	    cp   $09
2E2F  3EEF    	    ld   a,$EF
2E31  DA612E  	    jp   c,$2E61
2E34  21E1FF  	    ld   hl,$FFE1
2E37  09      	    add  hl,bc
2E38  BE      	    cp   (hl)
2E39  DA5B2E  	    jp   c,$2E5B
2E3C  21E3FF  	    ld   hl,$FFE3
2E3F  09      	    add  hl,bc
2E40  BE      	    cp   (hl)
2E41  DA552E  	    jp   c,$2E55
2E44  EB      	    ex   de,hl
2E45  7E      	    ld   a,(hl)
2E46  FE01    	    cp   $01
2E48  CA502E  	    jp   z,$2E50
2E4B  3601    	    ld   (hl),$01
2E4D  C3092E  	    jp   $2E09
2E50  3602    	    ld   (hl),$02
2E52  C3092E  	    jp   $2E09
2E55  EB      	    ex   de,hl
2E56  3604    	    ld   (hl),$04
2E58  C3092E  	    jp   $2E09
2E5B  EB      	    ex   de,hl
2E5C  3608    	    ld   (hl),$08
2E5E  C3092E  	    jp   $2E09
2E61  21E3FF  	    ld   hl,$FFE3
2E64  09      	    add  hl,bc
2E65  BE      	    cp   (hl)
2E66  DA552E  	    jp   c,$2E55
2E69  21E1FF  	    ld   hl,$FFE1
2E6C  09      	    add  hl,bc
2E6D  BE      	    cp   (hl)
2E6E  DA5B2E  	    jp   c,$2E5B
2E71  C3442E  	    jp   $2E44
2E74  ED5F    	    ld   a,r
2E76  E60F    	    and  $0F
2E78  FE02    	    cp   $02
2E7A  DA942E  	    jp   c,$2E94
2E7D  FE09    	    cp   $09
2E7F  3EEF    	    ld   a,$EF
2E81  DAB12E  	    jp   c,$2EB1
2E84  21C2FF  	    ld   hl,$FFC2
2E87  09      	    add  hl,bc
2E88  BE      	    cp   (hl)
2E89  DAA52E  	    jp   c,$2EA5
2E8C  210200  	    ld   hl,$0002
2E8F  09      	    add  hl,bc
2E90  BE      	    cp   (hl)
2E91  DAAB2E  	    jp   c,$2EAB
2E94  EB      	    ex   de,hl
2E95  7E      	    ld   a,(hl)
2E96  FE04    	    cp   $04
2E98  CAA02E  	    jp   z,$2EA0
2E9B  3604    	    ld   (hl),$04
2E9D  C3092E  	    jp   $2E09
2EA0  3608    	    ld   (hl),$08
2EA2  C3092E  	    jp   $2E09
2EA5  EB      	    ex   de,hl
2EA6  3602    	    ld   (hl),$02
2EA8  C3092E  	    jp   $2E09
2EAB  EB      	    ex   de,hl
2EAC  3601    	    ld   (hl),$01
2EAE  C3092E  	    jp   $2E09
2EB1  210200  	    ld   hl,$0002
2EB4  09      	    add  hl,bc
2EB5  BE      	    cp   (hl)
2EB6  DAAB2E  	    jp   c,$2EAB
2EB9  21C2FF  	    ld   hl,$FFC2
2EBC  09      	    add  hl,bc
2EBD  BE      	    cp   (hl)
2EBE  DAA52E  	    jp   c,$2EA5
2EC1  C3942E  	    jp   $2E94
2EC4  23      	    inc  hl
2EC5  3600    	    ld   (hl),$00 ; set cat 0 (what dir is that?)
2EC7  23      	    inc  hl
2EC8  1A      	    ld   a,(de)
2EC9  FE0C    	    cp   $0C
2ECB  CA092E  	    jp   z,$2E09
2ECE  D2D72E  	    jp   nc,$2ED7
2ED1  3E0C    	    ld   a,$0C
2ED3  12      	    ld   (de),a
2ED4  C3092E  	    jp   $2E09
2ED7  13      	    inc  de
2ED8  CDB330  	    call get_tile_pos
2EDB  44      	    ld   b,h
2EDC  4D      	    ld   c,l
2EDD  210200  	    ld   hl,$0002
2EE0  09      	    add  hl,bc
2EE1  3EEF    	    ld   a,$EF
2EE3  BE      	    cp   (hl)
2EE4  D21C2E  	    jp   nc,$2E1C
2EE7  210D00  	    ld   hl,$000D
2EEA  19      	    add  hl,de
2EEB  EB      	    ex   de,hl
2EEC  21E2FF  	    ld   hl,$FFE2
2EEF  CDCE30  	    call $30CE
2EF2  A7      	    and  a
2EF3  C2FC2E  	    jp   nz,$2EFC
2EF6  210200  	    ld   hl,$0002
2EF9  CDCE30  	    call $30CE
2EFC  21F7FF  	    ld   hl,$FFF7
2EFF  19      	    add  hl,de
2F00  54      	    ld   d,h
2F01  5D      	    ld   e,l
2F02  13      	    inc  de
2F03  1A      	    ld   a,(de)
2F04  77      	    ld   (hl),a
2F05  3E00    	    ld   a,$00
2F07  13      	    inc  de
2F08  13      	    inc  de
2F09  12      	    ld   (de),a
2F0A  210600  	    ld   hl,$0006
2F0D  C34B30  	    jp   $304B
2F10  23      	    inc  hl
2F11  3680    	    ld   (hl),$80 ; set cat x80 (what's that?!)
2F13  23      	    inc  hl
2F14  1A      	    ld   a,(de)
2F15  FEE4    	    cp   $E4
2F17  CA092E  	    jp   z,$2E09
2F1A  DA232F  	    jp   c,$2F23
2F1D  3EE4    	    ld   a,$E4
2F1F  12      	    ld   (de),a
2F20  C3092E  	    jp   $2E09
2F23  13      	    inc  de
2F24  CDB330  	    call get_tile_pos
2F27  44      	    ld   b,h
2F28  4D      	    ld   c,l
2F29  21C2FF  	    ld   hl,$FFC2
2F2C  09      	    add  hl,bc
2F2D  3EEF    	    ld   a,$EF
2F2F  BE      	    cp   (hl)
2F30  D21C2E  	    jp   nc,$2E1C
2F33  210D00  	    ld   hl,$000D
2F36  19      	    add  hl,de
2F37  EB      	    ex   de,hl
2F38  21E2FF  	    ld   hl,$FFE2
2F3B  CDCE30  	    call $30CE
2F3E  A7      	    and  a
2F3F  C2482F  	    jp   nz,$2F48
2F42  21C2FF  	    ld   hl,$FFC2
2F45  CDCE30  	    call $30CE
2F48  21F7FF  	    ld   hl,$FFF7
2F4B  19      	    add  hl,de
2F4C  54      	    ld   d,h
2F4D  5D      	    ld   e,l
2F4E  13      	    inc  de
2F4F  13      	    inc  de
2F50  1A      	    ld   a,(de)
2F51  77      	    ld   (hl),a
2F52  3E00    	    ld   a,$00
2F54  13      	    inc  de
2F55  12      	    ld   (de),a
2F56  210600  	    ld   hl,$0006
2F59  C34B30  	    jp   $304B
2F5C  23      	    inc  hl
2F5D  3604    	    ld   (hl),$04 ; set cat down
2F5F  23      	    inc  hl
2F60  13      	    inc  de
2F61  1A      	    ld   a,(de)
2F62  FEEC    	    cp   $EC
2F64  CA092E  	    jp   z,$2E09
2F67  DA702F  	    jp   c,$2F70
2F6A  3EE4    	    ld   a,$E4
2F6C  12      	    ld   (de),a
2F6D  C3092E  	    jp   $2E09
2F70  CDB330  	    call get_tile_pos
2F73  44      	    ld   b,h
2F74  4D      	    ld   c,l
2F75  21E3FF  	    ld   hl,$FFE3
2F78  09      	    add  hl,bc
2F79  3EEF    	    ld   a,$EF
2F7B  BE      	    cp   (hl)
2F7C  D21C2E  	    jp   nc,$2E1C
2F7F  210D00  	    ld   hl,$000D
2F82  19      	    add  hl,de
2F83  EB      	    ex   de,hl
2F84  21E2FF  	    ld   hl,$FFE2
2F87  CDCE30  	    call $30CE
2F8A  A7      	    and  a
2F8B  C2942F  	    jp   nz,$2F94
2F8E  21E3FF  	    ld   hl,$FFE3
2F91  CDCE30  	    call $30CE
2F94  21F7FF  	    ld   hl,$FFF7
2F97  19      	    add  hl,de
2F98  3E00    	    ld   a,$00
2F9A  77      	    ld   (hl),a
2F9B  23      	    inc  hl
2F9C  23      	    inc  hl
2F9D  23      	    inc  hl
2F9E  54      	    ld   d,h
2F9F  5D      	    ld   e,l
2FA0  13      	    inc  de
2FA1  1A      	    ld   a,(de)
2FA2  77      	    ld   (hl),a
2FA3  EB      	    ex   de,hl
2FA4  210600  	    ld   hl,$0006
2FA7  C34B30  	    jp   $304B
2FAA  23      	    inc  hl
2FAB  3608    	    ld   (hl),$08 ; set cat up
2FAD  23      	    inc  hl
2FAE  13      	    inc  de
2FAF  1A      	    ld   a,(de)
2FB0  FE14    	    cp   $14
2FB2  CA092E  	    jp   z,$2E09
2FB5  D2BE2F  	    jp   nc,$2FBE
2FB8  3E14    	    ld   a,$14
2FBA  12      	    ld   (de),a
2FBB  C3092E  	    jp   $2E09
2FBE  CDB330  	    call get_tile_pos
2FC1  44      	    ld   b,h
2FC2  4D      	    ld   c,l
2FC3  21E1FF  	    ld   hl,$FFE1
2FC6  09      	    add  hl,bc
2FC7  3EEF    	    ld   a,$EF
2FC9  BE      	    cp   (hl)
2FCA  D21C2E  	    jp   nc,$2E1C
2FCD  210D00  	    ld   hl,$000D
2FD0  19      	    add  hl,de
2FD1  EB      	    ex   de,hl
2FD2  21E2FF  	    ld   hl,$FFE2
2FD5  CDCE30  	    call $30CE
2FD8  A7      	    and  a
2FD9  C2E22F  	    jp   nz,$2FE2
2FDC  21E1FF  	    ld   hl,$FFE1
2FDF  CDCE30  	    call $30CE
2FE2  21F7FF  	    ld   hl,$FFF7
2FE5  19      	    add  hl,de
2FE6  3E00    	    ld   a,$00
2FE8  77      	    ld   (hl),a
2FE9  23      	    inc  hl
2FEA  23      	    inc  hl
2FEB  23      	    inc  hl
2FEC  54      	    ld   d,h
2FED  5D      	    ld   e,l
2FEE  13      	    inc  de
2FEF  13      	    inc  de
2FF0  1A      	    ld   a,(de)
2FF1  77      	    ld   (hl),a
2FF2  EB      	    ex   de,hl
2FF3  210600  	    ld   hl,$0006
2FF6  C34B30  	    jp   $304B
2FF9  7E      	    ld   a,(hl)
2FFA  FE01    	    cp   $01
2FFC  C20230  	    jp   nz,$3002

                ;;; ============ start of suprmous.x4 (plus 1 byte!)  =============

2FFF  3602    	    ld   (hl),$02
3001  C9      	    ret
3002  FEFF    	    cp   $FF
3004  C0      	    ret  nz
3005  36FE    	    ld   (hl),$FE
3007  C9      	    ret
3008  7E      	    ld   a,(hl)
3009  FE02    	    cp   $02
300B  C21130  	    jp   nz,$3011
300E  3601    	    ld   (hl),$01
3010  C9      	    ret
3011  FEFE    	    cp   $FE
3013  C0      	    ret  nz
3014  36FF    	    ld   (hl),$FF
3016  C9      	    ret
3017  00      	    nop
3018  00      	    nop
3019  00      	    nop
301A  00      	    nop
301B  2B      	    dec  hl
301C  2B      	    dec  hl
301D  2B      	    dec  hl
301E  13      	    inc  de
301F  1A      	    ld   a,(de)
3020  E603    	    and  $03
3022  A7      	    and  a
3023  C22830  	    jp   nz,$3028
3026  3E03    	    ld   a,$03
3028  3D      	    dec  a
3029  12      	    ld   (de),a
302A  FE01    	    cp   $01
302C  C23930  	    jp   nz,$3039
302F  CDF92F  	    call $2FF9
3032  23      	    inc  hl
3033  23      	    inc  hl
3034  23      	    inc  hl
3035  CDF92F  	    call $2FF9
3038  C9      	    ret
3039  CD0830  	    call $3008
303C  23      	    inc  hl
303D  23      	    inc  hl
303E  23      	    inc  hl
303F  CD0830  	    call $3008
3042  C9      	    ret
3043  210700  	    ld   hl,$0007
3046  19      	    add  hl,de
3047  EB      	    ex   de,hl
3048  210600  	    ld   hl,$0006
304B  19      	    add  hl,de
304C  EB      	    ex   de,hl
304D  44      	    ld   b,h
304E  4D      	    ld   c,l
304F  211000  	    ld   hl,$0010
3052  09      	    add  hl,bc
3053  7E      	    ld   a,(hl)
3054  60      	    ld   h,b
3055  69      	    ld   l,c
3056  A7      	    and  a
3057  C41730  	    call nz,$3017
305A  00      	    nop
305B  00      	    nop
305C  00      	    nop
305D  00      	    nop
305E  00      	    nop
305F  00      	    nop
3060  54      	    ld   d,h
3061  5D      	    ld   e,l
3062  01FAFF  	    ld   bc,$FFFA
3065  09      	    add  hl,bc
3066  1A      	    ld   a,(de)
3067  86      	    add  a,(hl)
3068  77      	    ld   (hl),a
3069  1B      	    dec  de
306A  1B      	    dec  de
306B  1B      	    dec  de
306C  2B      	    dec  hl
306D  1A      	    ld   a,(de)
306E  86      	    add  a,(hl)
306F  77      	    ld   (hl),a
3070  2B      	    dec  hl
3071  2B      	    dec  hl
3072  7E      	    ld   a,(hl)
3073  3C      	    inc  a
3074  E607    	    and  $07
3076  77      	    ld   (hl),a
3077  FE04    	    cp   $04
3079  DA8130  	    jp   c,$3081
307C  3600    	    ld   (hl),$00
307E  2B      	    dec  hl
307F  34      	    inc  (hl)
3080  23      	    inc  hl
3081  2B      	    dec  hl
3082  1B      	    dec  de
3083  CD8A30  	    call $308A
3086  CD9C30  	    call $309C
3089  C9      	    ret


308A  7E      	    ld   a,(hl)
308B  E603    	    and  $03
308D  47      	    ld   b,a
308E  1A      	    ld   a,(de)
308F  E6CC    	    and  $CC
3091  4F      	    ld   c,a
3092  2B      	    dec  hl
3093  7E      	    ld   a,(hl)
3094  E630    	    and  $30
3096  B0      	    or   b
3097  B1      	    or   c
3098  77      	    ld   (hl),a
3099  EB      	    ex   de,hl
309A  1B      	    dec  de
309B  C9      	    ret


309C  1A      	    ld   a,(de)
309D  6F      	    ld   l,a
309E  2680    	    ld   h,$80
30A0  13      	    inc  de
30A1  1A      	    ld   a,(de)
30A2  77      	    ld   (hl),a
30A3  13      	    inc  de
30A4  13      	    inc  de
30A5  13      	    inc  de
30A6  13      	    inc  de
30A7  2B      	    dec  hl
30A8  1A      	    ld   a,(de)
30A9  77      	    ld   (hl),a
30AA  23      	    inc  hl
30AB  23      	    inc  hl
30AC  3606    	    ld   (hl),$06
30AE  23      	    inc  hl
30AF  13      	    inc  de
30B0  1A      	    ld   a,(de)
30B1  77      	    ld   (hl),a
30B2  C9      	    ret

                ;; in: de = x, de-1 = y
                ;; out: hl = screen pos of entity
                get_tile_pos:
30B3  1A      	    ld   a,(de)
30B4  0F      	    rrca
30B5  0F      	    rrca
30B6  0F      	    rrca
30B7  E61F    	    and  $1F
30B9  6F      	    ld   l,a
30BA  1B      	    dec  de
30BB  1A      	    ld   a,(de)
30BC  ED44    	    neg
30BE  07      	    rlca
30BF  07      	    rlca
30C0  67      	    ld   h,a
30C1  E6E0    	    and  $E0
30C3  B5      	    or   l
30C4  6F      	    ld   l,a
30C5  7C      	    ld   a,h
30C6  E603    	    and  $03
30C8  67      	    ld   h,a
30C9  3E90    	    ld   a,$90
30CB  84      	    add  a,h
30CC  67      	    ld   h,a
30CD  C9      	    ret


30CE  09      	    add  hl,bc
30CF  3EF4    	    ld   a,$F4
30D1  BE      	    cp   (hl)
30D2  CAD930  	    jp   z,$30D9
30D5  3E00    	    ld   a,$00
30D7  12      	    ld   (de),a
30D8  C9      	    ret
30D9  3E01    	    ld   a,$01
30DB  12      	    ld   (de),a
30DC  C9      	    ret


30DD  EB      	    ex   de,hl
30DE  21F9FF  	    ld   hl,$FFF9
30E1  19      	    add  hl,de
30E2  34      	    inc  (hl)
30E3  7E      	    ld   a,(hl)
30E4  FE10    	    cp   $10
30E6  DA1331  	    jp   c,$3113
30E9  CAFE30  	    jp   z,$30FE
30EC  E607    	    and  $07
30EE  FE00    	    cp   $00
30F0  C20431  	    jp   nz,$3104
30F3  21FDFF  	    ld   hl,$FFFD
30F6  19      	    add  hl,de
30F7  3E80    	    ld   a,$80
30F9  86      	    add  a,(hl)
30FA  77      	    ld   (hl),a
30FB  C30431  	    jp   $3104
30FE  21FDFF  	    ld   hl,$FFFD
3101  19      	    add  hl,de
3102  365C    	    ld   (hl),$5C
3104  62      	    ld   h,d
3105  6B      	    ld   l,e
3106  23      	    inc  hl
3107  23      	    inc  hl
3108  7E      	    ld   a,(hl)
3109  C602    	    add  a,$02
310B  FEE0    	    cp   $E0
310D  DA1231  	    jp   c,$3112
3110  3EE0    	    ld   a,$E0
3112  77      	    ld   (hl),a
3113  21FCFF  	    ld   hl,$FFFC
3116  19      	    add  hl,de
3117  EB      	    ex   de,hl
3118  CD9C30  	    call $309C
311B  C9      	    ret

311C  EB      	    ex   de,hl
311D  21FAFF  	    ld   hl,$FFFA
3120  19      	    add  hl,de
3121  34      	    inc  (hl)
3122  7E      	    ld   a,(hl)
3123  23      	    inc  hl
3124  23      	    inc  hl
3125  23      	    inc  hl
3126  FE01    	    cp   $01
3128  C22D31  	    jp   nz,$312D
312B  365D    	    ld   (hl),$5D
312D  FE08    	    cp   $08
312F  C23431  	    jp   nz,$3134
3132  3631    	    ld   (hl),$31
3134  FE14    	    cp   $14
3136  C23B31  	    jp   nz,$313B
3139  3630    	    ld   (hl),$30
313B  FE20    	    cp   $20
313D  C24231  	    jp   nz,$3142
3140  362A    	    ld   (hl),$2A
3142  FE80    	    cp   $80
3144  DA4A31  	    jp   c,$314A
3147  3E07    	    ld   a,$07
3149  12      	    ld   (de),a
314A  EB      	    ex   de,hl
314B  1B      	    dec  de
314C  CD9C30  	    call $309C
314F  C9      	    ret
3150  EB      	    ex   de,hl
3151  21FAFF  	    ld   hl,$FFFA
3154  19      	    add  hl,de
3155  34      	    inc  (hl)
3156  7E      	    ld   a,(hl)
3157  23      	    inc  hl
3158  23      	    inc  hl
3159  23      	    inc  hl
315A  FE01    	    cp   $01
315C  C26131  	    jp   nz,$3161
315F  361C    	    ld   (hl),$1C
3161  FE08    	    cp   $08
3163  C26831  	    jp   nz,$3168
3166  361D    	    ld   (hl),$1D
3168  FE14    	    cp   $14
316A  C26F31  	    jp   nz,$316F
316D  361E    	    ld   (hl),$1E
316F  FE20    	    cp   $20
3171  C27631  	    jp   nz,$3176
3174  362A    	    ld   (hl),$2A
3176  FE80    	    cp   $80
3178  DA7E31  	    jp   c,$317E
317B  3E07    	    ld   a,$07
317D  12      	    ld   (de),a
317E  EB      	    ex   de,hl
317F  1B      	    dec  de
3180  CD9C30  	    call $309C
3183  C9      	    ret
3184  0E00    	    ld   c,$00
3186  23      	    inc  hl
3187  71      	    ld   (hl),c
3188  23      	    inc  hl
3189  71      	    ld   (hl),c
318A  54      	    ld   d,h
318B  7D      	    ld   a,l
318C  FE19    	    cp   $19
318E  C29531  	    jp   nz,$3195
3191  59      	    ld   e,c
3192  C3B431  	    jp   $31B4
3195  FE39    	    cp   $39
3197  C29F31  	    jp   nz,$319F
319A  1E02    	    ld   e,$02
319C  C3B431  	    jp   $31B4
319F  FE59    	    cp   $59
31A1  C2A931  	    jp   nz,$31A9
31A4  1E04    	    ld   e,$04
31A6  C3B431  	    jp   $31B4
31A9  FE79    	    cp   $79
31AB  CAB231  	    jp   z,$31B2
31AE  00      	    nop
31AF  C3AE31  	    jp   $31AE
31B2  1E06    	    ld   e,$06
31B4  EB      	    ex   de,hl
31B5  71      	    ld   (hl),c
31B6  23      	    inc  hl
31B7  71      	    ld   (hl),c
31B8  EB      	    ex   de,hl
31B9  11FAFF  	    ld   de,$FFFA
31BC  19      	    add  hl,de
31BD  EB      	    ex   de,hl
31BE  211500  	    ld   hl,$0015
31C1  01EF31  	    ld   bc,$31EF
31C4  19      	    add  hl,de
31C5  CDCF31  	    call $31CF
31C8  CD9C30  	    call $309C
31CB  C9      	    ret
31CC  00      	    nop
31CD  00      	    nop
31CE  00      	    nop


31CF  E5      	    push hl
31D0  60      	    ld   h,b
31D1  69      	    ld   l,c
31D2  3A0181  	    ld   a,($8101)
31D5  FE09    	    cp   $09
31D7  DADC31  	    jp   c,$31DC
31DA  3E09    	    ld   a,$09
31DC  A7      	    and  a
31DD  CAE531  	    jp   z,$31E5
31E0  47      	    ld   b,a
31E1  23      	    inc  hl
31E2  23      	    inc  hl
31E3  10FC    	    djnz $31E1
31E5  4E      	    ld   c,(hl)
31E6  23      	    inc  hl
31E7  46      	    ld   b,(hl)
31E8  E1      	    pop  hl
31E9  71      	    ld   (hl),c
31EA  23      	    inc  hl
31EB  70      	    ld   (hl),b
31EC  C9      	    ret


31ED  00      	    nop
31EE  00      	    nop
31EF  00      	    nop
31F0  08      	    ex   af,af'
31F1  14      	    inc  d
31F2  04      	    inc  b
31F3  00      	    nop
31F4  04      	    inc  b
31F5  00      	    nop
31F6  04      	    inc  b
31F7  14      	    inc  d
31F8  03      	    inc  bc
31F9  14      	    inc  d
31FA  03      	    inc  bc
31FB  14      	    inc  d
31FC  03      	    inc  bc
31FD  14      	    inc  d
31FE  02      	    ld   (bc),a
31FF  14      	    inc  d
3200  02      	    ld   (bc),a
3201  14      	    inc  d
3202  02      	    ld   (bc),a
3203  00      	    nop
3204  00      	    nop
3205  00      	    nop
3206  00      	    nop
3207  00      	    nop
3208  00      	    nop
3209  210886  	    ld   hl,$8608
320C  7E      	    ld   a,(hl)
320D  A7      	    and  a
320E  C21C32  	    jp   nz,$321C
3211  3601    	    ld   (hl),$01
3213  212886  	    ld   hl,$8628
3216  011533  	    ld   bc,$3315
3219  CDF732  	    call $32F7
321C  110086  	    ld   de,snake1_enable
321F  212986  	    ld   hl,$8629
3222  1A      	    ld   a,(de)
3223  A7      	    and  a
3224  CC5632  	    call z,$3256
3227  210986  	    ld   hl,$8609
322A  7E      	    ld   a,(hl)
322B  A7      	    and  a
322C  C23A32  	    jp   nz,$323A
322F  3601    	    ld   (hl),$01
3231  214886  	    ld   hl,$8648
3234  012B33  	    ld   bc,$332B
3237  CDF732  	    call $32F7
323A  110286  	    ld   de,$8602
323D  214986  	    ld   hl,$8649
3240  1A      	    ld   a,(de)
3241  A7      	    and  a
3242  CC5632  	    call z,$3256
3245  210086  	    ld   hl,snake1_enable
3248  7E      	    ld   a,(hl)
3249  A7      	    and  a
324A  C46D32  	    call nz,setup_snake1
324D  210286  	    ld   hl,$8602
3250  7E      	    ld   a,(hl)
3251  A7      	    and  a
3252  C4B232  	    call nz,setup_snake2
3255  C9      	    ret

3256  46      	    ld   b,(hl)
3257  2B      	    dec  hl
3258  7E      	    ld   a,(hl)
3259  B0      	    or   b
325A  C26132  	    jp   nz,$3261
325D  3E01    	    ld   a,$01
325F  12      	    ld   (de),a
3260  C9      	    ret
3261  7E      	    ld   a,(hl)
3262  A7      	    and  a
3263  CA6832  	    jp   z,$3268
3266  35      	    dec  (hl)
3267  C9      	    ret
3268  36FF    	    ld   (hl),$FF
326A  23      	    inc  hl
326B  35      	    dec  (hl)
326C  C9      	    ret

                setup_snake1:
326D  23      	    inc  hl
326E  7E      	    ld   a,(hl)
326F  A7      	    and  a
3270  C28B32  	    jp   nz,$328B
3273  3A3E80  	    ld   a,($803E)
3276  A7      	    and  a
3277  C0      	    ret  nz
3278  3601    	    ld   (hl),$01
327A  111086  	    ld   de,snake1_bytes
327D  219232  	    ld   hl,snake1_init_data
3280  012000  	    ld   bc,$0020
3283  EDB0    	    ldir
3285  3E86    	    ld   a,$86
3287  3200B8  	    ld   (watchdog),a
328A  C9      	    ret
328B  211786  	    ld   hl,$8617
328E  CD3F33  	    call $333F
3291  C9      	    ret
    ;;
                snake1_init_data:
3292  00      	    nop
3293  00      	    nop
3294  00      	    nop
3295  15      	    dec  d
3296  2C      	    inc  l
3297  00      	    nop
3298  00      	    nop
3299  01B4C2  	    ld   bc,$C2B4
329C  00      	    nop
329D  00      	    nop
329E  00      	    nop
329F  FF      	    rst  $38
32A0  010001  	    ld   bc,$0100
32A3  FF      	    rst  $38
32A4  00      	    nop
32A5  00      	    nop
32A6  00      	    nop
32A7  00      	    nop
32A8  00      	    nop
32A9  00      	    nop
32AA  00      	    nop
32AB  00      	    nop
32AC  00      	    nop
32AD  010000  	    ld   bc,$0000
32B0  00      	    nop
32B1  00      	    nop

                setup_snake2:
32B2  23      	    inc  hl
32B3  7E      	    ld   a,(hl)
32B4  A7      	    and  a
32B5  C2D032  	    jp   nz,$32D0
32B8  3A3E80  	    ld   a,($803E)
32BB  A7      	    and  a
32BC  C0      	    ret  nz
32BD  3601    	    ld   (hl),$01
32BF  113086  	    ld   de,snake2_bytes
32C2  21D732  	    ld   hl,snake2_init_data
32C5  012000  	    ld   bc,$0020 ; 32 bytes
32C8  EDB0    	    ldir
32CA  3E86    	    ld   a,$86
32CC  3200B8  	    ld   (watchdog),a
32CF  C9      	    ret
32D0  213786  	    ld   hl,$8637
32D3  CD3F33  	    call $333F
32D6  C9      	    ret

                snake2_init_data:
32D7  00      	    nop
32D8  00      	    nop
32D9  00      	    nop
32DA  19      	    add  hl,de
32DB  2C      	    inc  l
32DC  00      	    nop
32DD  00      	    nop
32DE  01B4C2  	    ld   bc,$C2B4
32E1  00      	    nop
32E2  00      	    nop
32E3  00      	    nop
32E4  FF      	    rst  $38
32E5  010001  	    ld   bc,$0100
32E8  FF      	    rst  $38
32E9  00      	    nop
32EA  00      	    nop
32EB  00      	    nop
32EC  00      	    nop
32ED  00      	    nop
32EE  00      	    nop
32EF  00      	    nop
32F0  00      	    nop
32F1  00      	    nop
32F2  010000  	    ld   bc,$0000
32F5  00      	    nop
32F6  00      	    nop

32F7  E5      	    push hl
32F8  60      	    ld   h,b
32F9  69      	    ld   l,c
32FA  3A0181  	    ld   a,($8101)
32FD  FE09    	    cp   $09
32FF  DA0433  	    jp   c,$3304
3302  3E09    	    ld   a,$09
3304  A7      	    and  a
3305  CA0D33  	    jp   z,$330D
3308  47      	    ld   b,a
3309  23      	    inc  hl
330A  23      	    inc  hl
330B  10FC    	    djnz $3309
330D  4E      	    ld   c,(hl)
330E  23      	    inc  hl
330F  46      	    ld   b,(hl)
3310  E1      	    pop  hl
3311  71      	    ld   (hl),c
3312  23      	    inc  hl
3313  70      	    ld   (hl),b
3314  C9      	    ret
3315  3001    	    jr   nc,$3318
3317  00      	    nop
3318  01B000  	    ld   bc,$00B0
331B  70      	    ld   (hl),b
331C  00      	    nop
331D  3000    	    jr   nc,$331F
331F  3000    	    jr   nc,$3321
3321  3000    	    jr   nc,$3323
3323  3000    	    jr   nc,$3325
3325  3000    	    jr   nc,$3327
3327  00      	    nop
3328  00      	    nop
3329  00      	    nop
332A  00      	    nop
332B  90      	    sub  b
332C  03      	    inc  bc
332D  2003    	    jr   nz,$3332
332F  E0      	    ret  po
3330  02      	    ld   (bc),a
3331  A0      	    and  b
3332  02      	    ld   (bc),a
3333  60      	    ld   h,b
3334  02      	    ld   (bc),a
3335  40      	    ld   b,b
3336  02      	    ld   (bc),a
3337  2002    	    jr   nz,$333B
3339  D0      	    ret  nc
333A  019001  	    ld   bc,$0190
333D  50      	    ld   d,b
333E  00      	    nop
333F  7E      	    ld   a,(hl)
3340  FE01    	    cp   $01
3342  CA5F33  	    jp   z,$335F
3345  FE03    	    cp   $03
3347  CAA533  	    jp   z,$33A5
334A  FE04    	    cp   $04
334C  CA1B38  	    jp   z,$381B
334F  FE05    	    cp   $05
3351  CA5A38  	    jp   z,$385A
3354  FE06    	    cp   $06
3356  CA8E38  	    jp   z,$388E
3359  FE07    	    cp   $07
335B  CAC238  	    jp   z,$38C2
335E  C9      	    ret
335F  3A3E80  	    ld   a,($803E)
3362  A7      	    and  a
3363  C0      	    ret  nz
3364  EB      	    ex   de,hl
3365  42      	    ld   b,d
3366  4B      	    ld   c,e
3367  211300  	    ld   hl,$0013
336A  19      	    add  hl,de
336B  1B      	    dec  de
336C  1B      	    dec  de
336D  1B      	    dec  de
336E  1B      	    dec  de
336F  34      	    inc  (hl)
3370  7E      	    ld   a,(hl)
3371  FE80    	    cp   $80
3373  D28733  	    jp   nc,$3387
3376  E61F    	    and  $1F
3378  FE10    	    cp   $10
337A  DA8133  	    jp   c,$3381
337D  CDB337  	    call $37B3
3380  C9      	    ret
3381  062F    	    ld   b,$2F
3383  CD9133  	    call $3391
3386  C9      	    ret
3387  23      	    inc  hl
3388  3600    	    ld   (hl),$00
338A  3E03    	    ld   a,$03
338C  02      	    ld   (bc),a
338D  CDB337  	    call $37B3
3390  C9      	    ret
3391  1A      	    ld   a,(de)
3392  210500  	    ld   hl,$0005
3395  19      	    add  hl,de
3396  EB      	    ex   de,hl
3397  6F      	    ld   l,a
3398  2680    	    ld   h,$80
339A  70      	    ld   (hl),b
339B  2B      	    dec  hl
339C  1A      	    ld   a,(de)
339D  77      	    ld   (hl),a
339E  23      	    inc  hl
339F  23      	    inc  hl
33A0  23      	    inc  hl
33A1  13      	    inc  de
33A2  1A      	    ld   a,(de)
33A3  77      	    ld   (hl),a
33A4  C9      	    ret
33A5  EB      	    ex   de,hl
33A6  211000  	    ld   hl,$0010
33A9  19      	    add  hl,de
33AA  7E      	    ld   a,(hl)
33AB  A7      	    and  a
33AC  CAB533  	    jp   z,$33B5
33AF  35      	    dec  (hl)
33B0  EB      	    ex   de,hl
33B1  23      	    inc  hl
33B2  C39A34  	    jp   $349A
33B5  13      	    inc  de
33B6  01FBFF  	    ld   bc,$FFFB
33B9  09      	    add  hl,bc
33BA  EB      	    ex   de,hl
33BB  0607    	    ld   b,$07
33BD  3E14    	    ld   a,$14
33BF  BE      	    cp   (hl)
33C0  CACB33  	    jp   z,$33CB
33C3  C620    	    add  a,$20
33C5  10F8    	    djnz $33BF
33C7  23      	    inc  hl
33C8  C39934  	    jp   $3499
33CB  23      	    inc  hl
33CC  0607    	    ld   b,$07
33CE  3E22    	    ld   a,$22
33D0  BE      	    cp   (hl)
33D1  CA4B34  	    jp   z,$344B
33D4  C620    	    add  a,$20
33D6  10F8    	    djnz $33D0
33D8  C39934  	    jp   $3499
33DB  ED5F    	    ld   a,r
33DD  E603    	    and  $03
33DF  FE01    	    cp   $01
33E1  C2E733  	    jp   nz,$33E7
33E4  3601    	    ld   (hl),$01
33E6  C9      	    ret
33E7  FE02    	    cp   $02
33E9  C2EF33  	    jp   nz,$33EF
33EC  3602    	    ld   (hl),$02
33EE  C9      	    ret
33EF  FE03    	    cp   $03
33F1  C2F733  	    jp   nz,$33F7
33F4  3604    	    ld   (hl),$04
33F6  C9      	    ret
33F7  FE00    	    cp   $00
33F9  C0      	    ret  nz
33FA  3608    	    ld   (hl),$08
33FC  C9      	    ret
33FD  42      	    ld   b,d
33FE  4B      	    ld   c,e
33FF  54      	    ld   d,h
3400  5D      	    ld   e,l
3401  1B      	    dec  de
3402  EB      	    ex   de,hl
3403  0A      	    ld   a,(bc)
3404  3C      	    inc  a
3405  FE09    	    cp   $09
3407  DA0C34  	    jp   c,$340C
340A  3E00    	    ld   a,$00
340C  02      	    ld   (bc),a
340D  FE01    	    cp   $01
340F  CA3634  	    jp   z,$3436
3412  FE03    	    cp   $03
3414  CA3634  	    jp   z,$3436
3417  FE04    	    cp   $04
3419  CA3634  	    jp   z,$3436
341C  FE06    	    cp   $06
341E  CA3634  	    jp   z,$3436
3421  3A0380  	    ld   a,($8003)
3424  BE      	    cp   (hl)
3425  2B      	    dec  hl
3426  EB      	    ex   de,hl
3427  CA3334  	    jp   z,$3433
342A  DA3034  	    jp   c,$3430
342D  3604    	    ld   (hl),$04
342F  C9      	    ret
3430  3608    	    ld   (hl),$08
3432  C9      	    ret
3433  3600    	    ld   (hl),$00
3435  C9      	    ret
3436  2B      	    dec  hl
3437  3A0080  	    ld   a,(ram_start)
343A  BE      	    cp   (hl)
343B  EB      	    ex   de,hl
343C  CA4834  	    jp   z,$3448
343F  DA4534  	    jp   c,$3445
3442  3602    	    ld   (hl),$02
3444  C9      	    ret
3445  3601    	    ld   (hl),$01
3447  C9      	    ret
3448  3600    	    ld   (hl),$00
344A  C9      	    ret
344B  E5      	    push hl
344C  011300  	    ld   bc,$0013
344F  09      	    add  hl,bc
3450  34      	    inc  (hl)
3451  44      	    ld   b,h
3452  4D      	    ld   c,l
3453  E1      	    pop  hl
3454  23      	    inc  hl
3455  7D      	    ld   a,l
3456  E6F0    	    and  $F0
3458  FE10    	    cp   $10
345A  C27B34  	    jp   nz,$347B
345D  0A      	    ld   a,(bc)
345E  F5      	    push af
345F  E603    	    and  $03
3461  FE00    	    cp   $00
3463  C4FD33  	    call nz,$33FD
3466  EB      	    ex   de,hl
3467  210D00  	    ld   hl,$000D
346A  19      	    add  hl,de
346B  F1      	    pop  af
346C  CB67    	    bit  4,a
346E  CA7634  	    jp   z,$3476
3471  3630    	    ld   (hl),$30
3473  C39734  	    jp   $3497
3476  3610    	    ld   (hl),$10
3478  C39734  	    jp   $3497
347B  FE30    	    cp   $30
347D  00      	    nop
347E  00      	    nop
347F  00      	    nop
3480  C27E34  	    jp   nz,$347E
3483  0A      	    ld   a,(bc)
3484  F5      	    push af
3485  E603    	    and  $03
3487  FE02    	    cp   $02
3489  C4FD33  	    call nz,$33FD
348C  EB      	    ex   de,hl
348D  210D00  	    ld   hl,$000D
3490  19      	    add  hl,de
3491  F1      	    pop  af
3492  C618    	    add  a,$18
3494  C36C34  	    jp   $346C
3497  EB      	    ex   de,hl
3498  2B      	    dec  hl
3499  2B      	    dec  hl
349A  54      	    ld   d,h
349B  5D      	    ld   e,l
349C  7E      	    ld   a,(hl)
349D  23      	    inc  hl
349E  E607    	    and  $07
34A0  FE04    	    cp   $04
34A2  C21037  	    jp   nz,$3710
34A5  7E      	    ld   a,(hl)
34A6  E607    	    and  $07
34A8  FE02    	    cp   $02
34AA  C21037  	    jp   nz,$3710
34AD  EB      	    ex   de,hl
34AE  CDCA37  	    call $37CA
34B1  01E2FF  	    ld   bc,$FFE2
34B4  09      	    add  hl,bc
34B5  3EFE    	    ld   a,$FE
34B7  BE      	    cp   (hl)
34B8  C2D734  	    jp   nz,$34D7
34BB  1B      	    dec  de
34BC  3E95    	    ld   a,$95
34BE  3200B8  	    ld   (watchdog),a
34C1  3E04    	    ld   a,$04
34C3  12      	    ld   (de),a
34C4  211400  	    ld   hl,$0014
34C7  19      	    add  hl,de
34C8  3601    	    ld   (hl),$01
34CA  21FDFF  	    ld   hl,$FFFD
34CD  19      	    add  hl,de
34CE  362C    	    ld   (hl),$2C
34D0  210300  	    ld   hl,$0003
34D3  19      	    add  hl,de
34D4  3600    	    ld   (hl),$00
34D6  13      	    inc  de
34D7  EB      	    ex   de,hl
34D8  23      	    inc  hl
34D9  54      	    ld   d,h
34DA  5D      	    ld   e,l
34DB  23      	    inc  hl
34DC  1B      	    dec  de
34DD  7E      	    ld   a,(hl)
34DE  0F      	    rrca
34DF  DA9F35  	    jp   c,$359F
34E2  0F      	    rrca
34E3  DAFA35  	    jp   c,$35FA
34E6  0F      	    rrca
34E7  DA5536  	    jp   c,$3655
34EA  0F      	    rrca
34EB  DAB236  	    jp   c,$36B2
34EE  EB      	    ex   de,hl
34EF  21FCFF  	    ld   hl,$FFFC
34F2  19      	    add  hl,de
34F3  35      	    dec  (hl)
34F4  EB      	    ex   de,hl
34F5  23      	    inc  hl
34F6  23      	    inc  hl
34F7  3E00    	    ld   a,$00
34F9  77      	    ld   (hl),a
34FA  23      	    inc  hl
34FB  23      	    inc  hl
34FC  23      	    inc  hl
34FD  77      	    ld   (hl),a
34FE  C37437  	    jp   $3774
3501  13      	    inc  de
3502  13      	    inc  de
3503  1A      	    ld   a,(de)
3504  FE03    	    cp   $03
3506  D25435  	    jp   nc,$3554
3509  ED5F    	    ld   a,r
350B  E60F    	    and  $0F
350D  FE09    	    cp   $09
350F  3EDF    	    ld   a,$DF
3511  DA4135  	    jp   c,$3541
3514  21E1FF  	    ld   hl,$FFE1
3517  09      	    add  hl,bc
3518  BE      	    cp   (hl)
3519  DA3B35  	    jp   c,$353B
351C  21E3FF  	    ld   hl,$FFE3
351F  09      	    add  hl,bc
3520  BE      	    cp   (hl)
3521  DA3535  	    jp   c,$3535
3524  EB      	    ex   de,hl
3525  7E      	    ld   a,(hl)
3526  FE01    	    cp   $01
3528  CA3035  	    jp   z,$3530
352B  3601    	    ld   (hl),$01
352D  C3EE34  	    jp   $34EE
3530  3602    	    ld   (hl),$02
3532  C3EE34  	    jp   $34EE
3535  EB      	    ex   de,hl
3536  3604    	    ld   (hl),$04
3538  C3EE34  	    jp   $34EE
353B  EB      	    ex   de,hl
353C  3608    	    ld   (hl),$08
353E  C3EE34  	    jp   $34EE
3541  21E3FF  	    ld   hl,$FFE3
3544  09      	    add  hl,bc
3545  BE      	    cp   (hl)
3546  DA3535  	    jp   c,$3535
3549  21E1FF  	    ld   hl,$FFE1
354C  09      	    add  hl,bc
354D  BE      	    cp   (hl)
354E  DA3B35  	    jp   c,$353B
3551  C32435  	    jp   $3524
3554  ED5F    	    ld   a,r
3556  E60F    	    and  $0F
3558  FE09    	    cp   $09
355A  3EDF    	    ld   a,$DF
355C  DA8C35  	    jp   c,$358C
355F  21C2FF  	    ld   hl,$FFC2
3562  09      	    add  hl,bc
3563  BE      	    cp   (hl)
3564  DA8035  	    jp   c,$3580
3567  210200  	    ld   hl,$0002
356A  09      	    add  hl,bc
356B  BE      	    cp   (hl)
356C  DA8635  	    jp   c,$3586
356F  EB      	    ex   de,hl
3570  7E      	    ld   a,(hl)
3571  FE04    	    cp   $04
3573  CA7B35  	    jp   z,$357B
3576  3604    	    ld   (hl),$04
3578  C3EE34  	    jp   $34EE
357B  3608    	    ld   (hl),$08
357D  C3EE34  	    jp   $34EE
3580  EB      	    ex   de,hl
3581  3602    	    ld   (hl),$02
3583  C3EE34  	    jp   $34EE
3586  EB      	    ex   de,hl
3587  3601    	    ld   (hl),$01
3589  C3EE34  	    jp   $34EE
358C  210200  	    ld   hl,$0002
358F  09      	    add  hl,bc
3590  BE      	    cp   (hl)
3591  DA8635  	    jp   c,$3586
3594  21C2FF  	    ld   hl,$FFC2
3597  09      	    add  hl,bc
3598  BE      	    cp   (hl)
3599  DA8035  	    jp   c,$3580
359C  C36F35  	    jp   $356F
359F  23      	    inc  hl
35A0  3600    	    ld   (hl),$00
35A2  23      	    inc  hl
35A3  1A      	    ld   a,(de)
35A4  FE0C    	    cp   $0C
35A6  CAEE34  	    jp   z,$34EE
35A9  D2B235  	    jp   nc,$35B2
35AC  3E0C    	    ld   a,$0C
35AE  12      	    ld   (de),a
35AF  C3EE34  	    jp   $34EE
35B2  13      	    inc  de
35B3  CDCA37  	    call $37CA
35B6  44      	    ld   b,h
35B7  4D      	    ld   c,l
35B8  210200  	    ld   hl,$0002
35BB  09      	    add  hl,bc
35BC  3EDF    	    ld   a,$DF
35BE  BE      	    cp   (hl)
35BF  D20135  	    jp   nc,$3501
35C2  210B00  	    ld   hl,$000B
35C5  19      	    add  hl,de
35C6  EB      	    ex   de,hl
35C7  21E2FF  	    ld   hl,$FFE2
35CA  CDE537  	    call $37E5
35CD  A7      	    and  a
35CE  C2D735  	    jp   nz,$35D7
35D1  210200  	    ld   hl,$0002
35D4  CDE537  	    call $37E5
35D7  13      	    inc  de
35D8  13      	    inc  de
35D9  21E2FF  	    ld   hl,$FFE2
35DC  CD0C38  	    call $380C
35DF  A7      	    and  a
35E0  C2E935  	    jp   nz,$35E9
35E3  210200  	    ld   hl,$0002
35E6  CD0C38  	    call $380C
35E9  21F7FF  	    ld   hl,$FFF7
35EC  19      	    add  hl,de
35ED  54      	    ld   d,h
35EE  5D      	    ld   e,l
35EF  13      	    inc  de
35F0  1A      	    ld   a,(de)
35F1  77      	    ld   (hl),a
35F2  3E00    	    ld   a,$00
35F4  13      	    inc  de
35F5  13      	    inc  de
35F6  12      	    ld   (de),a
35F7  C32237  	    jp   $3722
35FA  23      	    inc  hl
35FB  3680    	    ld   (hl),$80
35FD  23      	    inc  hl
35FE  1A      	    ld   a,(de)
35FF  FEE4    	    cp   $E4
3601  CAEE34  	    jp   z,$34EE
3604  DA0D36  	    jp   c,$360D
3607  3EE4    	    ld   a,$E4
3609  12      	    ld   (de),a
360A  C3EE34  	    jp   $34EE
360D  13      	    inc  de
360E  CDCA37  	    call $37CA
3611  44      	    ld   b,h
3612  4D      	    ld   c,l
3613  21C2FF  	    ld   hl,$FFC2
3616  09      	    add  hl,bc
3617  3EDF    	    ld   a,$DF
3619  BE      	    cp   (hl)
361A  D20135  	    jp   nc,$3501
361D  210B00  	    ld   hl,$000B
3620  19      	    add  hl,de
3621  EB      	    ex   de,hl
3622  21E2FF  	    ld   hl,$FFE2
3625  CDE537  	    call $37E5
3628  A7      	    and  a
3629  C23236  	    jp   nz,$3632
362C  21C2FF  	    ld   hl,$FFC2
362F  CDE537  	    call $37E5
3632  13      	    inc  de
3633  13      	    inc  de
3634  21E2FF  	    ld   hl,$FFE2
3637  CD0C38  	    call $380C
363A  A7      	    and  a
363B  C24436  	    jp   nz,$3644
363E  21C2FF  	    ld   hl,$FFC2
3641  CD0C38  	    call $380C
3644  21F7FF  	    ld   hl,$FFF7
3647  19      	    add  hl,de
3648  54      	    ld   d,h
3649  5D      	    ld   e,l
364A  13      	    inc  de
364B  13      	    inc  de
364C  1A      	    ld   a,(de)
364D  77      	    ld   (hl),a
364E  3E00    	    ld   a,$00
3650  13      	    inc  de
3651  12      	    ld   (de),a
3652  C32237  	    jp   $3722
3655  23      	    inc  hl
3656  3604    	    ld   (hl),$04
3658  23      	    inc  hl
3659  13      	    inc  de
365A  1A      	    ld   a,(de)
365B  FEEC    	    cp   $EC
365D  CAEE34  	    jp   z,$34EE
3660  DA6936  	    jp   c,$3669
3663  3EEC    	    ld   a,$EC
3665  12      	    ld   (de),a
3666  C3EE34  	    jp   $34EE
3669  CDCA37  	    call $37CA
366C  44      	    ld   b,h
366D  4D      	    ld   c,l
366E  21E3FF  	    ld   hl,$FFE3
3671  09      	    add  hl,bc
3672  3EDF    	    ld   a,$DF
3674  BE      	    cp   (hl)
3675  D20135  	    jp   nc,$3501
3678  210B00  	    ld   hl,$000B
367B  19      	    add  hl,de
367C  EB      	    ex   de,hl
367D  21E2FF  	    ld   hl,$FFE2
3680  CDE537  	    call $37E5
3683  A7      	    and  a
3684  C28D36  	    jp   nz,$368D
3687  21E3FF  	    ld   hl,$FFE3
368A  CDE537  	    call $37E5
368D  13      	    inc  de
368E  13      	    inc  de
368F  21E2FF  	    ld   hl,$FFE2
3692  CD0C38  	    call $380C
3695  A7      	    and  a
3696  C29F36  	    jp   nz,$369F
3699  21E3FF  	    ld   hl,$FFE3
369C  CD0C38  	    call $380C
369F  21F7FF  	    ld   hl,$FFF7
36A2  19      	    add  hl,de
36A3  3E00    	    ld   a,$00
36A5  77      	    ld   (hl),a
36A6  23      	    inc  hl
36A7  23      	    inc  hl
36A8  23      	    inc  hl
36A9  54      	    ld   d,h
36AA  5D      	    ld   e,l
36AB  13      	    inc  de
36AC  1A      	    ld   a,(de)
36AD  77      	    ld   (hl),a
36AE  EB      	    ex   de,hl
36AF  C32237  	    jp   $3722
36B2  23      	    inc  hl
36B3  3644    	    ld   (hl),$44
36B5  23      	    inc  hl
36B6  13      	    inc  de
36B7  1A      	    ld   a,(de)
36B8  FE14    	    cp   $14
36BA  CAEE34  	    jp   z,$34EE
36BD  D2C636  	    jp   nc,$36C6
36C0  3E14    	    ld   a,$14
36C2  12      	    ld   (de),a
36C3  C3EE34  	    jp   $34EE
36C6  CDCA37  	    call $37CA
36C9  44      	    ld   b,h
36CA  4D      	    ld   c,l
36CB  21E1FF  	    ld   hl,$FFE1
36CE  09      	    add  hl,bc
36CF  3EDF    	    ld   a,$DF
36D1  BE      	    cp   (hl)
36D2  D20135  	    jp   nc,$3501
36D5  210B00  	    ld   hl,$000B
36D8  19      	    add  hl,de
36D9  EB      	    ex   de,hl
36DA  21E2FF  	    ld   hl,$FFE2
36DD  CDE537  	    call $37E5
36E0  A7      	    and  a
36E1  C2EA36  	    jp   nz,$36EA
36E4  21E1FF  	    ld   hl,$FFE1
36E7  CDE537  	    call $37E5
36EA  13      	    inc  de
36EB  13      	    inc  de
36EC  21E2FF  	    ld   hl,$FFE2
36EF  CD0C38  	    call $380C
36F2  A7      	    and  a
36F3  C2FC36  	    jp   nz,$36FC
36F6  21E1FF  	    ld   hl,$FFE1
36F9  CD0C38  	    call $380C
36FC  21F7FF  	    ld   hl,$FFF7
36FF  19      	    add  hl,de
3700  3E00    	    ld   a,$00
3702  77      	    ld   (hl),a
3703  23      	    inc  hl
3704  23      	    inc  hl
3705  23      	    inc  hl
3706  54      	    ld   d,h
3707  5D      	    ld   e,l
3708  13      	    inc  de
3709  13      	    inc  de
370A  1A      	    ld   a,(de)
370B  77      	    ld   (hl),a
370C  EB      	    ex   de,hl
370D  C32237  	    jp   $3722
3710  210700  	    ld   hl,$0007
3713  19      	    add  hl,de
3714  EB      	    ex   de,hl
3715  210E00  	    ld   hl,$000E
3718  19      	    add  hl,de
3719  44      	    ld   b,h
371A  4D      	    ld   c,l
371B  210500  	    ld   hl,$0005
371E  19      	    add  hl,de
371F  C33037  	    jp   $3730
3722  210E00  	    ld   hl,$000E
3725  19      	    add  hl,de
3726  44      	    ld   b,h
3727  4D      	    ld   c,l
3728  3600    	    ld   (hl),$00
372A  210500  	    ld   hl,$0005
372D  19      	    add  hl,de
372E  3600    	    ld   (hl),$00
3730  EB      	    ex   de,hl
3731  1B      	    dec  de
3732  1A      	    ld   a,(de)
3733  A7      	    and  a
3734  CA4537  	    jp   z,$3745
3737  13      	    inc  de
3738  1A      	    ld   a,(de)
3739  3C      	    inc  a
373A  E603    	    and  $03
373C  12      	    ld   (de),a
373D  FE01    	    cp   $01
373F  CA7437  	    jp   z,$3774
3742  C36837  	    jp   $3768
3745  13      	    inc  de
3746  13      	    inc  de
3747  1A      	    ld   a,(de)
3748  A7      	    and  a
3749  CA5937  	    jp   z,$3759
374C  0A      	    ld   a,(bc)
374D  3C      	    inc  a
374E  E601    	    and  $01
3750  02      	    ld   (bc),a
3751  FE01    	    cp   $01
3753  CA7437  	    jp   z,$3774
3756  C36837  	    jp   $3768
3759  0A      	    ld   a,(bc)
375A  3C      	    inc  a
375B  E607    	    and  $07
375D  02      	    ld   (bc),a
375E  FE03    	    cp   $03
3760  CA6837  	    jp   z,$3768
3763  FE05    	    cp   $05
3765  C27437  	    jp   nz,$3774
3768  54      	    ld   d,h
3769  5D      	    ld   e,l
376A  21F9FF  	    ld   hl,$FFF9
376D  19      	    add  hl,de
376E  1B      	    dec  de
376F  1B      	    dec  de
3770  1B      	    dec  de
3771  C38737  	    jp   $3787
3774  00      	    nop
3775  00      	    nop
3776  00      	    nop
3777  54      	    ld   d,h
3778  5D      	    ld   e,l
3779  01FAFF  	    ld   bc,$FFFA
377C  09      	    add  hl,bc
377D  1A      	    ld   a,(de)
377E  86      	    add  a,(hl)
377F  77      	    ld   (hl),a
3780  1B      	    dec  de
3781  1B      	    dec  de
3782  1B      	    dec  de
3783  2B      	    dec  hl
3784  1A      	    ld   a,(de)
3785  86      	    add  a,(hl)
3786  77      	    ld   (hl),a
3787  2B      	    dec  hl
3788  2B      	    dec  hl
3789  7E      	    ld   a,(hl)
378A  3C      	    inc  a
378B  E607    	    and  $07
378D  77      	    ld   (hl),a
378E  FE04    	    cp   $04
3790  DA9837  	    jp   c,$3798
3793  3600    	    ld   (hl),$00
3795  2B      	    dec  hl
3796  34      	    inc  (hl)
3797  23      	    inc  hl
3798  2B      	    dec  hl
3799  1B      	    dec  de
379A  CDA137  	    call $37A1
379D  CDB337  	    call $37B3
37A0  C9      	    ret
37A1  7E      	    ld   a,(hl)
37A2  E603    	    and  $03
37A4  47      	    ld   b,a
37A5  1A      	    ld   a,(de)
37A6  E6CC    	    and  $CC
37A8  4F      	    ld   c,a
37A9  2B      	    dec  hl
37AA  7E      	    ld   a,(hl)
37AB  E630    	    and  $30
37AD  B0      	    or   b
37AE  B1      	    or   c
37AF  77      	    ld   (hl),a
37B0  EB      	    ex   de,hl
37B1  1B      	    dec  de
37B2  C9      	    ret
37B3  1A      	    ld   a,(de)
37B4  6F      	    ld   l,a
37B5  2680    	    ld   h,$80
37B7  13      	    inc  de
37B8  1A      	    ld   a,(de)
37B9  77      	    ld   (hl),a
37BA  13      	    inc  de
37BB  13      	    inc  de
37BC  13      	    inc  de
37BD  13      	    inc  de
37BE  2B      	    dec  hl
37BF  1A      	    ld   a,(de)
37C0  77      	    ld   (hl),a
37C1  23      	    inc  hl
37C2  23      	    inc  hl
37C3  3606    	    ld   (hl),$06
37C5  23      	    inc  hl
37C6  13      	    inc  de
37C7  1A      	    ld   a,(de)
37C8  77      	    ld   (hl),a
37C9  C9      	    ret


37CA  1A      	    ld   a,(de)
37CB  0F      	    rrca
37CC  0F      	    rrca
37CD  0F      	    rrca
37CE  E61F    	    and  $1F
37D0  6F      	    ld   l,a
37D1  1B      	    dec  de
37D2  1A      	    ld   a,(de)
37D3  ED44    	    neg
37D5  07      	    rlca
37D6  07      	    rlca
37D7  67      	    ld   h,a
37D8  E6E0    	    and  $E0
37DA  B5      	    or   l
37DB  6F      	    ld   l,a
37DC  7C      	    ld   a,h
37DD  E603    	    and  $03
37DF  67      	    ld   h,a
37E0  3E90    	    ld   a,$90
37E2  84      	    add  a,h
37E3  67      	    ld   h,a
37E4  C9      	    ret


37E5  09      	    add  hl,bc
37E6  3EE1    	    ld   a,$E1
37E8  BE      	    cp   (hl)
37E9  CA0838  	    jp   z,$3808
37EC  3EE2    	    ld   a,$E2
37EE  BE      	    cp   (hl)
37EF  CA0838  	    jp   z,$3808
37F2  3EE3    	    ld   a,$E3
37F4  BE      	    cp   (hl)
37F5  CA0838  	    jp   z,$3808
37F8  3EE4    	    ld   a,$E4
37FA  BE      	    cp   (hl)
37FB  CA0838  	    jp   z,$3808
37FE  00      	    nop
37FF  00      	    nop
3800  00      	    nop
3801  00      	    nop
3802  00      	    nop
3803  00      	    nop
3804  3E00    	    ld   a,$00
3806  12      	    ld   (de),a
3807  C9      	    ret
3808  3E01    	    ld   a,$01
380A  12      	    ld   (de),a
380B  C9      	    ret
380C  09      	    add  hl,bc
380D  3EE0    	    ld   a,$E0
380F  BE      	    cp   (hl)
3810  CA1738  	    jp   z,$3817
3813  3E00    	    ld   a,$00
3815  12      	    ld   (de),a
3816  C9      	    ret
3817  3E01    	    ld   a,$01
3819  12      	    ld   (de),a
381A  C9      	    ret
381B  EB      	    ex   de,hl
381C  21F9FF  	    ld   hl,$FFF9
381F  19      	    add  hl,de
3820  34      	    inc  (hl)
3821  7E      	    ld   a,(hl)
3822  FE10    	    cp   $10
3824  DA5138  	    jp   c,$3851
3827  CA3C38  	    jp   z,$383C
382A  E607    	    and  $07
382C  FE00    	    cp   $00
382E  C24238  	    jp   nz,$3842
3831  21FDFF  	    ld   hl,$FFFD
3834  19      	    add  hl,de
3835  3E80    	    ld   a,$80
3837  86      	    add  a,(hl)
3838  77      	    ld   (hl),a
3839  C34238  	    jp   $3842
383C  21FDFF  	    ld   hl,$FFFD
383F  19      	    add  hl,de
3840  3624    	    ld   (hl),$24
3842  62      	    ld   h,d
3843  6B      	    ld   l,e
3844  23      	    inc  hl
3845  23      	    inc  hl
3846  7E      	    ld   a,(hl)
3847  C602    	    add  a,$02
3849  FEE0    	    cp   $E0
384B  DA5038  	    jp   c,$3850
384E  3EE0    	    ld   a,$E0
3850  77      	    ld   (hl),a
3851  21FCFF  	    ld   hl,$FFFC
3854  19      	    add  hl,de
3855  EB      	    ex   de,hl
3856  CDB337  	    call $37B3
3859  C9      	    ret
385A  EB      	    ex   de,hl
385B  21FAFF  	    ld   hl,$FFFA
385E  19      	    add  hl,de
385F  34      	    inc  (hl)
3860  7E      	    ld   a,(hl)
3861  23      	    inc  hl
3862  23      	    inc  hl
3863  23      	    inc  hl
3864  FE01    	    cp   $01
3866  C26B38  	    jp   nz,$386B
3869  362D    	    ld   (hl),$2D
386B  FE08    	    cp   $08
386D  C27238  	    jp   nz,$3872
3870  3631    	    ld   (hl),$31
3872  FE14    	    cp   $14
3874  C27938  	    jp   nz,$3879
3877  3630    	    ld   (hl),$30
3879  FE20    	    cp   $20
387B  C28038  	    jp   nz,$3880
387E  362B    	    ld   (hl),$2B
3880  FE80    	    cp   $80
3882  DA8838  	    jp   c,$3888
3885  3E07    	    ld   a,$07
3887  12      	    ld   (de),a
3888  EB      	    ex   de,hl
3889  1B      	    dec  de
388A  CDB337  	    call $37B3
388D  C9      	    ret
388E  EB      	    ex   de,hl
388F  21FAFF  	    ld   hl,$FFFA
3892  19      	    add  hl,de
3893  34      	    inc  (hl)
3894  7E      	    ld   a,(hl)
3895  23      	    inc  hl
3896  23      	    inc  hl
3897  23      	    inc  hl
3898  FE01    	    cp   $01
389A  C29F38  	    jp   nz,$389F
389D  362C    	    ld   (hl),$2C
389F  FE08    	    cp   $08
38A1  C2A638  	    jp   nz,$38A6
38A4  362D    	    ld   (hl),$2D
38A6  FE14    	    cp   $14
38A8  C2AD38  	    jp   nz,$38AD
38AB  362E    	    ld   (hl),$2E
38AD  FE20    	    cp   $20
38AF  C2B438  	    jp   nz,$38B4
38B2  362B    	    ld   (hl),$2B
38B4  FE80    	    cp   $80
38B6  DABC38  	    jp   c,$38BC
38B9  3E07    	    ld   a,$07
38BB  12      	    ld   (de),a
38BC  EB      	    ex   de,hl
38BD  1B      	    dec  de
38BE  CDB337  	    call $37B3
38C1  C9      	    ret
38C2  0E00    	    ld   c,$00
38C4  23      	    inc  hl
38C5  71      	    ld   (hl),c
38C6  23      	    inc  hl
38C7  71      	    ld   (hl),c
38C8  54      	    ld   d,h
38C9  7D      	    ld   a,l
38CA  FE19    	    cp   $19
38CC  C2D338  	    jp   nz,$38D3
38CF  59      	    ld   e,c
38D0  C3F238  	    jp   $38F2
38D3  FE39    	    cp   $39
38D5  C2DD38  	    jp   nz,$38DD
38D8  1E02    	    ld   e,$02
38DA  C3F238  	    jp   $38F2
38DD  FE59    	    cp   $59
38DF  C2E738  	    jp   nz,$38E7
38E2  1E04    	    ld   e,$04
38E4  C3F238  	    jp   $38F2
38E7  FE79    	    cp   $79
38E9  CAF038  	    jp   z,$38F0
38EC  00      	    nop
38ED  C3EC38  	    jp   $38EC
38F0  1E06    	    ld   e,$06
38F2  EB      	    ex   de,hl
38F3  71      	    ld   (hl),c
38F4  23      	    inc  hl
38F5  71      	    ld   (hl),c
38F6  EB      	    ex   de,hl
38F7  11FAFF  	    ld   de,$FFFA
38FA  19      	    add  hl,de
38FB  EB      	    ex   de,hl
38FC  011039  	    ld   bc,$3910
38FF  211500  	    ld   hl,$0015
3902  19      	    add  hl,de
3903  CDF732  	    call $32F7
3906  CDB337  	    call $37B3
3909  C9      	    ret
390A  00      	    nop
390B  00      	    nop
390C  00      	    nop
390D  00      	    nop
390E  00      	    nop
390F  00      	    nop
3910  70      	    ld   (hl),b
3911  02      	    ld   (bc),a
3912  70      	    ld   (hl),b
3913  01F000  	    ld   bc,$00F0
3916  F0      	    ret  p
3917  00      	    nop
3918  F0      	    ret  p
3919  00      	    nop
391A  F0      	    ret  p
391B  00      	    nop
391C  F0      	    ret  p
391D  00      	    nop
391E  F0      	    ret  p
391F  00      	    nop
3920  F0      	    ret  p
3921  00      	    nop
3922  F0      	    ret  p
3923  00      	    nop
3924  00      	    nop
3925  00      	    nop
3926  00      	    nop
3927  00      	    nop
3928  00      	    nop
3929  00      	    nop
392A  3A00B0  	    ld   a,(int_enable)
392D  E680    	    and  $80
392F  C0      	    ret  nz
3930  3A1F84  	    ld   a,($841F)
3933  FE01    	    cp   $01
3935  C0      	    ret  nz
3936  3A3E80  	    ld   a,($803E)
3939  A7      	    and  a
393A  C0      	    ret  nz
393B  CD8139  	    call $3981
393E  CD9C39  	    call $399C
3941  CDB739  	    call $39B7
3944  CDD239  	    call $39D2
3947  CDED39  	    call $39ED
394A  C9      	    ret
394B  CD083A  	    call $3A08
394E  CD153A  	    call $3A15
3951  CD223A  	    call $3A22
3954  CD503A  	    call $3A50
3957  CD5D3A  	    call $3A5D
395A  CDCC3A  	    call $3ACC
395D  C9      	    ret
395E  DD7E03  	    ld   a,(ix+$03)
3961  FD4603  	    ld   b,(iy+$03)
3964  94      	    sub  h
3965  B8      	    cp   b
3966  D0      	    ret  nc
3967  85      	    add  a,l
3968  B8      	    cp   b
3969  D8      	    ret  c
396A  DD7E00  	    ld   a,(ix+$00)
396D  FD4600  	    ld   b,(iy+$00)
3970  92      	    sub  d
3971  B8      	    cp   b
3972  D0      	    ret  nc
3973  83      	    add  a,e
3974  B8      	    cp   b
3975  D8      	    ret  c
3976  3E81    	    ld   a,$81
3978  3200B8  	    ld   (watchdog),a
397B  211F84  	    ld   hl,$841F
397E  3602    	    ld   (hl),$02
3980  C9      	    ret
3981  3A0185  	    ld   a,($8501)
3984  A7      	    and  a
3985  C8      	    ret  z
3986  3A2B85  	    ld   a,($852B)
3989  A7      	    and  a
398A  C0      	    ret  nz
398B  DD210080	    ld   ix,ram_start
398F  FD210480	    ld   iy,$8004
3993  110E07  	    ld   de,$070E
3996  210E07  	    ld   hl,$070E
3999  C35E39  	    jp   $395E
399C  3A0485  	    ld   a,($8504)
399F  A7      	    and  a
39A0  C8      	    ret  z
39A1  3A6B85  	    ld   a,($856B)
39A4  A7      	    and  a
39A5  C0      	    ret  nz
39A6  DD210080	    ld   ix,ram_start
39AA  FD210C80	    ld   iy,$800C
39AE  110E07  	    ld   de,$070E
39B1  210E07  	    ld   hl,$070E
39B4  C35E39  	    jp   $395E
39B7  3A0785  	    ld   a,($8507)
39BA  A7      	    and  a
39BB  C8      	    ret  z
39BC  3A8B85  	    ld   a,($858B)
39BF  A7      	    and  a
39C0  C0      	    ret  nz
39C1  DD210080	    ld   ix,ram_start
39C5  FD211080	    ld   iy,$8010
39C9  110E07  	    ld   de,$070E
39CC  210E07  	    ld   hl,$070E
39CF  C35E39  	    jp   $395E
39D2  3A0186  	    ld   a,($8601)
39D5  A7      	    and  a
39D6  C8      	    ret  z
39D7  3A2B86  	    ld   a,($862B)
39DA  A7      	    and  a
39DB  C0      	    ret  nz
39DC  DD210080	    ld   ix,ram_start
39E0  FD211480	    ld   iy,$8014
39E4  110A05  	    ld   de,$050A
39E7  210A05  	    ld   hl,$050A
39EA  C35E39  	    jp   $395E
39ED  3A0386  	    ld   a,($8603)
39F0  A7      	    and  a
39F1  C8      	    ret  z
39F2  3A4B86  	    ld   a,($864B)
39F5  A7      	    and  a
39F6  C0      	    ret  nz
39F7  DD210080	    ld   ix,ram_start
39FB  FD211880	    ld   iy,$8018
39FF  110A05  	    ld   de,$050A
3A02  210A05  	    ld   hl,$050A
3A05  C35E39  	    jp   $395E
3A08  211785  	    ld   hl,$8517
3A0B  7E      	    ld   a,(hl)
3A0C  FE04    	    cp   $04
3A0E  C0      	    ret  nz
3A0F  110780  	    ld   de,$8007
3A12  C32C3A  	    jp   $3A2C
3A15  215785  	    ld   hl,$8557
3A18  7E      	    ld   a,(hl)
3A19  FE04    	    cp   $04
3A1B  C0      	    ret  nz
3A1C  110F80  	    ld   de,$800F
3A1F  C32C3A  	    jp   $3A2C
3A22  217785  	    ld   hl,$8577
3A25  7E      	    ld   a,(hl)
3A26  FE04    	    cp   $04
3A28  C0      	    ret  nz
3A29  111380  	    ld   de,$8013
3A2C  1A      	    ld   a,(de)
3A2D  FEE0    	    cp   $E0
3A2F  D2433A  	    jp   nc,$3A43
3A32  CD993B  	    call $3B99
3A35  FE37    	    cp   $37
3A37  C0      	    ret  nz
3A38  3605    	    ld   (hl),$05
3A3A  3E96    	    ld   a,$96
3A3C  3200B8  	    ld   (watchdog),a
3A3F  C34A3A  	    jp   $3A4A
3A42  C9      	    ret
3A43  3606    	    ld   (hl),$06
3A45  3E83    	    ld   a,$83
3A47  3200B8  	    ld   (watchdog),a
3A4A  1604    	    ld   d,$04
3A4C  CDBD3B  	    call $3BBD
3A4F  C9      	    ret
3A50  211786  	    ld   hl,$8617
3A53  7E      	    ld   a,(hl)
3A54  FE04    	    cp   $04
3A56  C0      	    ret  nz
3A57  111780  	    ld   de,$8017
3A5A  C3673A  	    jp   $3A67
3A5D  213786  	    ld   hl,$8637
3A60  7E      	    ld   a,(hl)
3A61  FE04    	    cp   $04
3A63  C0      	    ret  nz
3A64  111B80  	    ld   de,$801B
3A67  1A      	    ld   a,(de)
3A68  FEE0    	    cp   $E0
3A6A  D2783A  	    jp   nc,$3A78
3A6D  CD993B  	    call $3B99
3A70  FE37    	    cp   $37
3A72  C0      	    ret  nz
3A73  3605    	    ld   (hl),$05
3A75  C3853A  	    jp   $3A85
3A78  3606    	    ld   (hl),$06
3A7A  3E82    	    ld   a,$82
3A7C  3200B8  	    ld   (watchdog),a
3A7F  1608    	    ld   d,$08
3A81  CDBD3B  	    call $3BBD
3A84  C9      	    ret
3A85  3E97    	    ld   a,$97
3A87  3200B8  	    ld   (watchdog),a
3A8A  1608    	    ld   d,$08
3A8C  CDBD3B  	    call $3BBD
3A8F  1604    	    ld   d,$04
3A91  3A2B85  	    ld   a,($852B)
3A94  A7      	    and  a
3A95  C2A53A  	    jp   nz,$3AA5
3A98  CDBD3B  	    call $3BBD
3A9B  211785  	    ld   hl,$8517
3A9E  3606    	    ld   (hl),$06
3AA0  212B85  	    ld   hl,$852B
3AA3  3601    	    ld   (hl),$01
3AA5  3A6B85  	    ld   a,($856B)
3AA8  A7      	    and  a
3AA9  C2B93A  	    jp   nz,$3AB9
3AAC  CDBD3B  	    call $3BBD
3AAF  215785  	    ld   hl,$8557
3AB2  3606    	    ld   (hl),$06
3AB4  216B85  	    ld   hl,$856B
3AB7  3601    	    ld   (hl),$01
3AB9  3A8B85  	    ld   a,($858B)
3ABC  A7      	    and  a
3ABD  C0      	    ret  nz
3ABE  CDBD3B  	    call $3BBD
3AC1  217785  	    ld   hl,$8577
3AC4  3606    	    ld   (hl),$06
3AC6  218B85  	    ld   hl,$858B
3AC9  3601    	    ld   (hl),$01
3ACB  C9      	    ret
3ACC  3AC085  	    ld   a,($85C0)
3ACF  A7      	    and  a
3AD0  C8      	    ret  z
3AD1  CDE13A  	    call $3AE1
3AD4  CDF83A  	    call $3AF8
3AD7  CD0F3B  	    call $3B0F
3ADA  CD363B  	    call $3B36
3ADD  CD4D3B  	    call $3B4D
3AE0  C9      	    ret
3AE1  3A0185  	    ld   a,($8501)
3AE4  A7      	    and  a
3AE5  C8      	    ret  z
3AE6  3A2B85  	    ld   a,($852B)
3AE9  A7      	    and  a
3AEA  C0      	    ret  nz
3AEB  FD210480	    ld   iy,$8004
3AEF  21263B  	    ld   hl,$3B26
3AF2  111785  	    ld   de,$8517
3AF5  C3743B  	    jp   $3B74
3AF8  3A0585  	    ld   a,($8505)
3AFB  A7      	    and  a
3AFC  C8      	    ret  z
3AFD  3A6B85  	    ld   a,($856B)
3B00  A7      	    and  a
3B01  C0      	    ret  nz
3B02  FD210C80	    ld   iy,$800C
3B06  21263B  	    ld   hl,$3B26
3B09  115785  	    ld   de,$8557
3B0C  C3743B  	    jp   $3B74
3B0F  3A0785  	    ld   a,($8507)
3B12  A7      	    and  a
3B13  C8      	    ret  z
3B14  3A8B85  	    ld   a,($858B)
3B17  A7      	    and  a
3B18  C0      	    ret  nz
3B19  FD211080	    ld   iy,$8010
3B1D  21263B  	    ld   hl,$3B26
3B20  117785  	    ld   de,$8577
3B23  C3743B  	    jp   $3B74
3B26  21FDFF  	    ld   hl,$FFFD
3B29  19      	    add  hl,de
3B2A  361C    	    ld   (hl),$1C
3B2C  211400  	    ld   hl,$0014
3B2F  19      	    add  hl,de
3B30  3601    	    ld   (hl),$01
3B32  EB      	    ex   de,hl
3B33  3604    	    ld   (hl),$04
3B35  C9      	    ret
3B36  3A0186  	    ld   a,($8601)
3B39  A7      	    and  a
3B3A  C8      	    ret  z
3B3B  3A2B86  	    ld   a,($862B)
3B3E  A7      	    and  a
3B3F  C0      	    ret  nz
3B40  FD211480	    ld   iy,$8014
3B44  21643B  	    ld   hl,$3B64
3B47  111786  	    ld   de,$8617
3B4A  C3743B  	    jp   $3B74
3B4D  3A0386  	    ld   a,($8603)
3B50  A7      	    and  a
3B51  C8      	    ret  z
3B52  3A4B86  	    ld   a,($864B)
3B55  A7      	    and  a
3B56  C0      	    ret  nz
3B57  FD211880	    ld   iy,$8018
3B5B  21643B  	    ld   hl,$3B64
3B5E  113786  	    ld   de,$8637
3B61  C3743B  	    jp   $3B74
3B64  21FDFF  	    ld   hl,$FFFD
3B67  19      	    add  hl,de
3B68  362C    	    ld   (hl),$2C
3B6A  211400  	    ld   hl,$0014
3B6D  19      	    add  hl,de
3B6E  3601    	    ld   (hl),$01
3B70  EB      	    ex   de,hl
3B71  3604    	    ld   (hl),$04
3B73  C9      	    ret
3B74  DD211C80	    ld   ix,$801C
3B78  D9      	    exx
3B79  111008  	    ld   de,$0810
3B7C  211202  	    ld   hl,$0212
3B7F  DD7E03  	    ld   a,(ix+$03)
3B82  FD4603  	    ld   b,(iy+$03)
3B85  94      	    sub  h
3B86  B8      	    cp   b
3B87  D0      	    ret  nc
3B88  85      	    add  a,l
3B89  B8      	    cp   b
3B8A  D8      	    ret  c
3B8B  DD7E00  	    ld   a,(ix+$00)
3B8E  FD4600  	    ld   b,(iy+$00)
3B91  92      	    sub  d
3B92  B8      	    cp   b
3B93  D0      	    ret  nc
3B94  83      	    add  a,e
3B95  B8      	    cp   b
3B96  D8      	    ret  c
3B97  D9      	    exx
3B98  E9      	    jp   (hl)
3B99  1A      	    ld   a,(de)
3B9A  0F      	    rrca
3B9B  0F      	    rrca
3B9C  0F      	    rrca
3B9D  E61F    	    and  $1F
3B9F  4F      	    ld   c,a
3BA0  1B      	    dec  de
3BA1  1B      	    dec  de
3BA2  1B      	    dec  de
3BA3  1A      	    ld   a,(de)
3BA4  ED44    	    neg
3BA6  07      	    rlca
3BA7  07      	    rlca
3BA8  47      	    ld   b,a
3BA9  E6E0    	    and  $E0
3BAB  B1      	    or   c
3BAC  4F      	    ld   c,a
3BAD  78      	    ld   a,b
3BAE  E603    	    and  $03
3BB0  47      	    ld   b,a
3BB1  3E90    	    ld   a,$90
3BB3  80      	    add  a,b
3BB4  47      	    ld   b,a
3BB5  EB      	    ex   de,hl
3BB6  21E1FF  	    ld   hl,$FFE1
3BB9  09      	    add  hl,bc
3BBA  7E      	    ld   a,(hl)
3BBB  EB      	    ex   de,hl
3BBC  C9      	    ret

3BBD  AF      	    xor  a
3BBE  214080  	    ld   hl,$8040
3BC1  3601    	    ld   (hl),$01
3BC3  0E00    	    ld   c,$00
3BC5  1E00    	    ld   e,$00
3BC7  23      	    inc  hl
3BC8  79      	    ld   a,c
3BC9  8E      	    adc  a,(hl)
3BCA  27      	    daa
3BCB  77      	    ld   (hl),a
3BCC  23      	    inc  hl
3BCD  7A      	    ld   a,d
3BCE  8E      	    adc  a,(hl)
3BCF  27      	    daa
3BD0  77      	    ld   (hl),a
3BD1  23      	    inc  hl
3BD2  7B      	    ld   a,e
3BD3  8E      	    adc  a,(hl)
3BD4  27      	    daa
3BD5  77      	    ld   (hl),a
3BD6  C9      	    ret

3BD7  F8      	    ret  m
3BD8  34      	    inc  (hl)
3BD9  FE24    	    cp   $24
3BDB  F7      	    rst  $30
3BDC  33      	    inc  sp
3BDD  F624    	    or   $24
3BDF  FC24F6  	    call m,$F624
3BE2  24      	    inc  h
3BE3  03      	    inc  bc
3BE4  2A9132  	    ld   hl,($3291)
3BE7  91      	    sub  c
3BE8  AA      	    xor  d
3BE9  92      	    sub  d
3BEA  03      	    inc  bc
3BEB  2E91    	    ld   l,$91
3BED  AA      	    xor  d
3BEE  92      	    sub  d
3BEF  B2      	    or   d
3BF0  92      	    sub  d
3BF1  03      	    inc  bc
3BF2  A6      	    and  (hl)
3BF3  91      	    sub  c
3BF4  AE      	    xor  (hl)
3BF5  92      	    sub  d
3BF6  329103  	    ld   ($0391),a
3BF9  2692    	    ld   h,$92
3BFB  AE      	    xor  (hl)
3BFC  92      	    sub  d
3BFD  BA      	    cp   d
3BFE  92      	    sub  d
3BFF  21C080  	    ld   hl,$80C0
3C02  7E      	    ld   a,(hl)
3C03  A7      	    and  a
3C04  CA863C  	    jp   z,$3C86
3C07  23      	    inc  hl
3C08  7E      	    ld   a,(hl)
3C09  A7      	    and  a
3C0A  C2243C  	    jp   nz,$3C24
3C0D  111C3C  	    ld   de,$3C1C
3C10  010700  	    ld   bc,$0007
3C13  EB      	    ex   de,hl
3C14  EDB0    	    ldir
3C16  3E94    	    ld   a,$94
3C18  3200B8  	    ld   (watchdog),a
3C1B  C9      	    ret
3C1C  010000  	    ld   bc,$0000
3C1F  00      	    nop
3C20  00      	    nop
3C21  00      	    nop
3C22  00      	    nop
3C23  00      	    nop
3C24  23      	    inc  hl
3C25  7E      	    ld   a,(hl)
3C26  FE01    	    cp   $01
3C28  CA4D3C  	    jp   z,$3C4D
3C2B  FE02    	    cp   $02
3C2D  CA783C  	    jp   z,$3C78
3C30  CD923C  	    call $3C92
3C33  DD4600  	    ld   b,(ix+$00)
3C36  78      	    ld   a,b
3C37  A7      	    and  a
3C38  C8      	    ret  z
3C39  DD23    	    inc  ix
3C3B  11D73B  	    ld   de,$3BD7
3C3E  CDA93C  	    call $3CA9
3C41  21C280  	    ld   hl,$80C2
3C44  3601    	    ld   (hl),$01
3C46  23      	    inc  hl
3C47  3600    	    ld   (hl),$00
3C49  23      	    inc  hl
3C4A  3600    	    ld   (hl),$00
3C4C  C9      	    ret
3C4D  23      	    inc  hl
3C4E  34      	    inc  (hl)
3C4F  3E06    	    ld   a,$06
3C51  BE      	    cp   (hl)
3C52  D0      	    ret  nc
3C53  3600    	    ld   (hl),$00
3C55  23      	    inc  hl
3C56  34      	    inc  (hl)
3C57  7E      	    ld   a,(hl)
3C58  FE08    	    cp   $08
3C5A  D8      	    ret  c
3C5B  CD923C  	    call $3C92
3C5E  DD4600  	    ld   b,(ix+$00)
3C61  78      	    ld   a,b
3C62  A7      	    and  a
3C63  C8      	    ret  z
3C64  DD23    	    inc  ix
3C66  11DD3B  	    ld   de,$3BDD
3C69  CDA93C  	    call $3CA9
3C6C  21C280  	    ld   hl,$80C2
3C6F  3602    	    ld   (hl),$02
3C71  23      	    inc  hl
3C72  3600    	    ld   (hl),$00
3C74  23      	    inc  hl
3C75  3600    	    ld   (hl),$00
3C77  C9      	    ret
3C78  23      	    inc  hl
3C79  34      	    inc  (hl)
3C7A  3E06    	    ld   a,$06
3C7C  BE      	    cp   (hl)
3C7D  D0      	    ret  nc
3C7E  3600    	    ld   (hl),$00
3C80  23      	    inc  hl
3C81  34      	    inc  (hl)
3C82  7E      	    ld   a,(hl)
3C83  FE08    	    cp   $08
3C85  D8      	    ret  c
3C86  21C080  	    ld   hl,$80C0
3C89  3E00    	    ld   a,$00
3C8B  0608    	    ld   b,$08
3C8D  77      	    ld   (hl),a
3C8E  23      	    inc  hl
3C8F  10FC    	    djnz $3C8D
3C91  C9      	    ret
3C92  CDEF48  	    call $48EF
3C95  DD21E33B	    ld   ix,$3BE3
3C99  3A0181  	    ld   a,($8101)
3C9C  E603    	    and  $03
3C9E  110700  	    ld   de,$0007
3CA1  A7      	    and  a
3CA2  C8      	    ret  z
3CA3  DD19    	    add  ix,de
3CA5  3D      	    dec  a
3CA6  C3A13C  	    jp   $3CA1
3CA9  DD6E00  	    ld   l,(ix+$00)
3CAC  DD6601  	    ld   h,(ix+$01)
3CAF  C5      	    push bc
3CB0  D5      	    push de
3CB1  0602    	    ld   b,$02
3CB3  0E03    	    ld   c,$03
3CB5  CD6013  	    call $1360
3CB8  D1      	    pop  de
3CB9  C1      	    pop  bc
3CBA  DD23    	    inc  ix
3CBC  DD23    	    inc  ix
3CBE  10E9    	    djnz $3CA9
3CC0  C9      	    ret
3CC1  FD      	    db   $fd
3CC2  FF      	    rst  $38
3CC3  FD25    	    dec  iyh
3CC5  25      	    dec  h
3CC6  25      	    dec  h
3CC7  25      	    dec  h
3CC8  FD      	    db   $fd
3CC9  FF      	    rst  $38
3CCA  FD      	    db   $fd
3CCB  FEFE    	    cp   $FE
3CCD  FEFE    	    cp   $FE
3CCF  FEFD    	    cp   $FD
3CD1  FF      	    rst  $38
3CD2  FD      	    db   $fd
3CD3  FEFE    	    cp   $FE
3CD5  FEFE    	    cp   $FE
3CD7  FEFD    	    cp   $FD
3CD9  FF      	    rst  $38
3CDA  FD      	    db   $fd
3CDB  FEFE    	    cp   $FE
3CDD  FEFE    	    cp   $FE
3CDF  FEFD    	    cp   $FD
3CE1  FF      	    rst  $38
3CE2  FD      	    db   $fd
3CE3  FEFE    	    cp   $FE
3CE5  FEFE    	    cp   $FE
3CE7  FEFD    	    cp   $FD
3CE9  FF      	    rst  $38
3CEA  FD25    	    dec  iyh
3CEC  25      	    dec  h
3CED  25      	    dec  h
3CEE  25      	    dec  h
3CEF  FD      	    db   $fd
3CF0  FF      	    rst  $38
3CF1  FDA691  	    and  (iy-$6f)
3CF4  B6      	    or   (hl)
3CF5  92      	    sub  d
3CF6  00      	    nop
3CF7  90      	    sub  b
3CF8  2691    	    ld   h,$91
3CFA  B6      	    or   (hl)
3CFB  90      	    sub  b
3CFC  00      	    nop
3CFD  90      	    sub  b
3CFE  A6      	    and  (hl)
3CFF  92      	    sub  d
3D00  3692    	    ld   (hl),$92
3D02  00      	    nop
3D03  90      	    sub  b
3D04  2E91    	    ld   l,$91
3D06  B6      	    or   (hl)
3D07  91      	    sub  c
3D08  00      	    nop
3D09  90      	    sub  b
3D0A  21E080  	    ld   hl,$80E0
3D0D  7E      	    ld   a,(hl)
3D0E  A7      	    and  a
3D0F  C21E3D  	    jp   nz,$3D1E
3D12  21E080  	    ld   hl,$80E0
3D15  0608    	    ld   b,$08
3D17  3E00    	    ld   a,$00
3D19  77      	    ld   (hl),a
3D1A  23      	    inc  hl
3D1B  10FC    	    djnz $3D19
3D1D  C9      	    ret
3D1E  47      	    ld   b,a
3D1F  23      	    inc  hl
3D20  7E      	    ld   a,(hl)
3D21  A7      	    and  a
3D22  C2453D  	    jp   nz,$3D45
3D25  3601    	    ld   (hl),$01
3D27  23      	    inc  hl
3D28  78      	    ld   a,b
3D29  E60F    	    and  $0F
3D2B  77      	    ld   (hl),a
3D2C  78      	    ld   a,b
3D2D  E6F0    	    and  $F0
3D2F  0F      	    rrca
3D30  0F      	    rrca
3D31  0F      	    rrca
3D32  0F      	    rrca
3D33  23      	    inc  hl
3D34  77      	    ld   (hl),a
3D35  23      	    inc  hl
3D36  3600    	    ld   (hl),$00
3D38  23      	    inc  hl
3D39  3600    	    ld   (hl),$00
3D3B  23      	    inc  hl
3D3C  3600    	    ld   (hl),$00
3D3E  3E93    	    ld   a,$93
3D40  3200B8  	    ld   (watchdog),a
3D43  C9      	    ret
3D44  00      	    nop
3D45  23      	    inc  hl
3D46  7E      	    ld   a,(hl)
3D47  FE01    	    cp   $01
3D49  CA683D  	    jp   z,$3D68
3D4C  FE02    	    cp   $02
3D4E  CAAE3D  	    jp   z,$3DAE
3D51  C3123D  	    jp   $3D12
3D54  00      	    nop
3D55  00      	    nop
3D56  C9      	    ret
3D57  CDF43D  	    call $3DF4
3D5A  C3123D  	    jp   $3D12
3D5D  3E00    	    ld   a,$00
3D5F  322284  	    ld   ($8422),a
3D62  3E01    	    ld   a,$01
3D64  321F84  	    ld   ($841F),a
3D67  C9      	    ret
3D68  23      	    inc  hl
3D69  23      	    inc  hl
3D6A  23      	    inc  hl
3D6B  34      	    inc  (hl)
3D6C  3E03    	    ld   a,$03
3D6E  BE      	    cp   (hl)
3D6F  D0      	    ret  nc
3D70  3600    	    ld   (hl),$00
3D72  23      	    inc  hl
3D73  34      	    inc  (hl)
3D74  7E      	    ld   a,(hl)
3D75  FE01    	    cp   $01
3D77  11CF3C  	    ld   de,$3CCF
3D7A  CAA33D  	    jp   z,$3DA3
3D7D  FE02    	    cp   $02
3D7F  11D63C  	    ld   de,$3CD6
3D82  CAA33D  	    jp   z,$3DA3
3D85  FE03    	    cp   $03
3D87  11DD3C  	    ld   de,$3CDD
3D8A  CAA33D  	    jp   z,$3DA3
3D8D  FE04    	    cp   $04
3D8F  11E43C  	    ld   de,$3CE4
3D92  CAA33D  	    jp   z,$3DA3
3D95  FE0C    	    cp   $0C
3D97  11EB3C  	    ld   de,$3CEB
3D9A  CA573D  	    jp   z,$3D57
3D9D  FE05    	    cp   $05
3D9F  CA5D3D  	    jp   z,$3D5D
3DA2  C9      	    ret
3DA3  3A0684  	    ld   a,(player_x)
3DA6  D608    	    sub  $08
3DA8  320684  	    ld   (player_x),a
3DAB  C3F43D  	    jp   $3DF4
3DAE  23      	    inc  hl
3DAF  23      	    inc  hl
3DB0  23      	    inc  hl
3DB1  34      	    inc  (hl)
3DB2  3E03    	    ld   a,$03
3DB4  BE      	    cp   (hl)
3DB5  D0      	    ret  nc
3DB6  3600    	    ld   (hl),$00
3DB8  23      	    inc  hl
3DB9  34      	    inc  (hl)
3DBA  7E      	    ld   a,(hl)
3DBB  FE01    	    cp   $01
3DBD  11DD3C  	    ld   de,$3CDD
3DC0  CAE93D  	    jp   z,$3DE9
3DC3  FE02    	    cp   $02
3DC5  11D63C  	    ld   de,$3CD6
3DC8  CAE93D  	    jp   z,$3DE9
3DCB  FE03    	    cp   $03
3DCD  11CF3C  	    ld   de,$3CCF
3DD0  CAE93D  	    jp   z,$3DE9
3DD3  FE04    	    cp   $04
3DD5  11C83C  	    ld   de,$3CC8
3DD8  CAE93D  	    jp   z,$3DE9
3DDB  FE0C    	    cp   $0C
3DDD  11C13C  	    ld   de,$3CC1
3DE0  CA573D  	    jp   z,$3D57
3DE3  FE05    	    cp   $05
3DE5  CA5D3D  	    jp   z,$3D5D
3DE8  C9      	    ret
3DE9  3A0684  	    ld   a,(player_x)
3DEC  C608    	    add  a,$08
3DEE  320684  	    ld   (player_x),a
3DF1  C3F43D  	    jp   $3DF4
3DF4  D5      	    push de
3DF5  CD053E  	    call $3E05
3DF8  2B      	    dec  hl
3DF9  2B      	    dec  hl
3DFA  2B      	    dec  hl
3DFB  5E      	    ld   e,(hl)
3DFC  1600    	    ld   d,$00
3DFE  DD19    	    add  ix,de
3E00  D1      	    pop  de
3E01  CD193E  	    call $3E19
3E04  C9      	    ret
3E05  DD21F23C	    ld   ix,$3CF2
3E09  3A0181  	    ld   a,($8101)
3E0C  E603    	    and  $03
3E0E  110600  	    ld   de,$0006
3E11  A7      	    and  a
3E12  C8      	    ret  z
3E13  DD19    	    add  ix,de
3E15  3D      	    dec  a
3E16  C3113E  	    jp   $3E11
3E19  E5      	    push hl
3E1A  DD6601  	    ld   h,(ix+$01)
3E1D  DD6E00  	    ld   l,(ix+$00)
3E20  0601    	    ld   b,$01
3E22  0E07    	    ld   c,$07
3E24  CD6013  	    call $1360
3E27  E1      	    pop  hl
3E28  C9      	    ret


3E29  212081  	    ld   hl,$8120
3E2C  DD21C63F	    ld   ix,$3FC6
3E30  FD210E40	    ld   iy,$400E
3E34  111200  	    ld   de,$0012
3E37  3A0181  	    ld   a,($8101)
3E3A  E603    	    and  $03
3E3C  A7      	    and  a
3E3D  CA483E  	    jp   z,$3E48
3E40  DD19    	    add  ix,de
3E42  FD19    	    add  iy,de
3E44  3D      	    dec  a
3E45  C33C3E  	    jp   $3E3C
3E48  0609    	    ld   b,$09
3E4A  7E      	    ld   a,(hl)
3E4B  A7      	    and  a
3E4C  CA563E  	    jp   z,$3E56
3E4F  FE02    	    cp   $02
3E51  C28A3E  	    jp   nz,$3E8A
3E54  3600    	    ld   (hl),$00
3E56  E5      	    push hl
3E57  D5      	    push de
3E58  C5      	    push bc
3E59  DD6E00  	    ld   l,(ix+$00)
3E5C  DD6601  	    ld   h,(ix+$01)
3E5F  FD5E00  	    ld   e,(iy+$00)
3E62  FD5601  	    ld   d,(iy+$01)
3E65  0602    	    ld   b,$02
3E67  0E02    	    ld   c,$02
3E69  E5      	    push hl
3E6A  CD6013  	    call $1360
3E6D  E1      	    pop  hl
3E6E  1A      	    ld   a,(de)
3E6F  112000  	    ld   de,$0020
3E72  0602    	    ld   b,$02
3E74  0E02    	    ld   c,$02
3E76  CBD4    	    set  2,h
3E78  CD8413  	    call $1384
3E7B  C1      	    pop  bc
3E7C  D1      	    pop  de
3E7D  E1      	    pop  hl
3E7E  23      	    inc  hl
3E7F  DD23    	    inc  ix
3E81  DD23    	    inc  ix
3E83  FD23    	    inc  iy
3E85  FD23    	    inc  iy
3E87  10C1    	    djnz $3E4A
3E89  C9      	    ret
3E8A  E5      	    push hl
3E8B  D5      	    push de
3E8C  C5      	    push bc
3E8D  DD6E00  	    ld   l,(ix+$00)
3E90  DD6601  	    ld   h,(ix+$01)
3E93  112000  	    ld   de,$0020
3E96  3E25    	    ld   a,$25
3E98  0602    	    ld   b,$02
3E9A  0E02    	    ld   c,$02
3E9C  E5      	    push hl
3E9D  CD8413  	    call $1384
3EA0  E1      	    pop  hl
3EA1  3E87    	    ld   a,$87
3EA3  112000  	    ld   de,$0020
3EA6  0602    	    ld   b,$02
3EA8  0E02    	    ld   c,$02
3EAA  CBD4    	    set  2,h
3EAC  CD8413  	    call $1384
3EAF  C37B3E  	    jp   $3E7B


3EB2  D9      	    exx
3EB3  212081  	    ld   hl,$8120
3EB6  DD21C63F	    ld   ix,$3FC6
3EBA  0609    	    ld   b,$09
3EBC  111200  	    ld   de,$0012
3EBF  3A0181  	    ld   a,($8101)
3EC2  E603    	    and  $03
3EC4  A7      	    and  a
3EC5  CACE3E  	    jp   z,$3ECE
3EC8  DD19    	    add  ix,de
3ECA  3D      	    dec  a
3ECB  C3C43E  	    jp   $3EC4
3ECE  D9      	    exx
3ECF  DD7E00  	    ld   a,(ix+$00)
3ED2  3C      	    inc  a
3ED3  BD      	    cp   l
3ED4  CADD3E  	    jp   z,$3EDD
3ED7  C620    	    add  a,$20
3ED9  BD      	    cp   l
3EDA  C2E83E  	    jp   nz,$3EE8
3EDD  DD7E01  	    ld   a,(ix+$01)
3EE0  BC      	    cp   h
3EE1  C2E83E  	    jp   nz,$3EE8
3EE4  79      	    ld   a,c
3EE5  D9      	    exx
3EE6  77      	    ld   (hl),a
3EE7  D9      	    exx
3EE8  D9      	    exx
3EE9  23      	    inc  hl
3EEA  DD23    	    inc  ix
3EEC  DD23    	    inc  ix
3EEE  10DE    	    djnz $3ECE
3EF0  D9      	    exx
3EF1  C9      	    ret

3EF2  214081  	    ld   hl,$8140
3EF5  010000  	    ld   bc,$0000
3EF8  7E      	    ld   a,(hl)
3EF9  A7      	    and  a
3EFA  CA043F  	    jp   z,$3F04
3EFD  23      	    inc  hl
3EFE  23      	    inc  hl
3EFF  0C      	    inc  c
3F00  0C      	    inc  c
3F01  C3F83E  	    jp   $3EF8
3F04  72      	    ld   (hl),d
3F05  23      	    inc  hl
3F06  73      	    ld   (hl),e
3F07  DD21B43F	    ld   ix,very_chunk_data_3
3F0B  DD09    	    add  ix,bc
3F0D  DD6E00  	    ld   l,(ix+$00)
3F10  DD6601  	    ld   h,(ix+$01)
3F13  72      	    ld   (hl),d
3F14  CBD4    	    set  2,h
3F16  73      	    ld   (hl),e
3F17  214080  	    ld   hl,$8040
3F1A  11313F  	    ld   de,$3F31
3F1D  0603    	    ld   b,$03
3F1F  3601    	    ld   (hl),$01
3F21  23      	    inc  hl
3F22  AF      	    xor  a
3F23  1A      	    ld   a,(de)
3F24  8E      	    adc  a,(hl)
3F25  27      	    daa
3F26  77      	    ld   (hl),a
3F27  23      	    inc  hl
3F28  13      	    inc  de
3F29  10F8    	    djnz $3F23
3F2B  3E84    	    ld   a,$84
3F2D  3200B8  	    ld   (watchdog),a
3F30  C9      	    ret
3F31  00      	    nop
3F32  05      	    dec  b
3F33  00      	    nop


3F34  3E09    	    ld   a,$09
3F36  214081  	    ld   hl,$8140
3F39  010000  	    ld   bc,$0000
3F3C  08      	    ex   af,af'
3F3D  7E      	    ld   a,(hl)
3F3E  A7      	    and  a
3F3F  C44C3F  	    call nz,$3F4C
3F42  23      	    inc  hl
3F43  23      	    inc  hl
3F44  0C      	    inc  c
3F45  0C      	    inc  c
3F46  08      	    ex   af,af'
3F47  3D      	    dec  a
3F48  C23C3F  	    jp   nz,$3F3C
3F4B  C9      	    ret


3F4C  E5      	    push hl
3F4D  56      	    ld   d,(hl)
3F4E  23      	    inc  hl
3F4F  5E      	    ld   e,(hl)
3F50  DD21B43F	    ld   ix,very_chunk_data_3
3F54  DD09    	    add  ix,bc
3F56  DD6E00  	    ld   l,(ix+$00)
3F59  DD6601  	    ld   h,(ix+$01)
3F5C  72      	    ld   (hl),d
3F5D  CBD4    	    set  2,h
3F5F  73      	    ld   (hl),e
3F60  E1      	    pop  hl
3F61  C9      	    ret


3F62  212081  	    ld   hl,$8120
3F65  DD21C63F	    ld   ix,$3FC6
3F69  111200  	    ld   de,$0012
3F6C  3A0181  	    ld   a,($8101)
3F6F  E603    	    and  $03
3F71  A7      	    and  a
3F72  CA7B3F  	    jp   z,$3F7B
3F75  DD19    	    add  ix,de
3F77  3D      	    dec  a
3F78  C3713F  	    jp   $3F71
3F7B  0609    	    ld   b,$09
3F7D  7E      	    ld   a,(hl)
3F7E  FE02    	    cp   $02
3F80  CA8B3F  	    jp   z,$3F8B
3F83  23      	    inc  hl
3F84  DD23    	    inc  ix
3F86  DD23    	    inc  ix
3F88  10F3    	    djnz $3F7D
3F8A  C9      	    ret
3F8B  C5      	    push bc
3F8C  E5      	    push hl
3F8D  DD6E00  	    ld   l,(ix+$00)
3F90  DD6601  	    ld   h,(ix+$01)
3F93  112000  	    ld   de,$0020
3F96  3E25    	    ld   a,$25
3F98  0602    	    ld   b,$02
3F9A  0E02    	    ld   c,$02
3F9C  E5      	    push hl
3F9D  CD8413  	    call $1384
3FA0  E1      	    pop  hl
3FA1  3E87    	    ld   a,$87
3FA3  112000  	    ld   de,$0020
3FA6  0602    	    ld   b,$02
3FA8  0E02    	    ld   c,$02
3FAA  CBD4    	    set  2,h
3FAC  CD8413  	    call $1384
3FAF  E1      	    pop  hl
3FB0  C1      	    pop  bc
3FB1  C3833F  	    jp   $3F83

                very_chunk_data_3:
3FB4  FD      	    db   $fd
3FB5  91      	    sub  c
3FB6  BD      	    cp   l
3FB7  91      	    sub  c
3FB8  DD      	    db   $dd
3FB9  91      	    sub  c
3FBA  FC91BC  	    call m,$BC91
3FBD  91      	    sub  c
3FBE  DC91FB  	    call c,$FB91
3FC1  91      	    sub  c
3FC2  BB      	    cp   e
3FC3  91      	    sub  c
3FC4  DB91    	    in   a,($91)
3FC6  C490DC  	    call nz,$DC90
3FC9  90      	    sub  b
3FCA  C8      	    ret  z
3FCB  91      	    sub  c
3FCC  48      	    ld   c,b
3FCD  92      	    sub  d
3FCE  50      	    ld   d,b
3FCF  92      	    sub  d
3FD0  D8      	    ret  c
3FD1  92      	    sub  d
3FD2  44      	    ld   b,h
3FD3  93      	    sub  e
3FD4  50      	    ld   d,b
3FD5  93      	    sub  e
3FD6  5C      	    ld   e,h
3FD7  93      	    sub  e
3FD8  C490CC  	    call nz,$CC90
3FDB  90      	    sub  b
3FDC  DC90C8  	    call c,$C890
3FDF  91      	    sub  c
3FE0  D49144  	    call nc,$4491
3FE3  92      	    sub  d
3FE4  D8      	    ret  c
3FE5  92      	    sub  d
3FE6  44      	    ld   b,h
3FE7  93      	    sub  e
3FE8  5C      	    ld   e,h
3FE9  93      	    sub  e
3FEA  C490CC  	    call nz,$CC90
3FED  90      	    sub  b
3FEE  D0      	    ret  nc
3FEF  90      	    sub  b
3FF0  DC90CC  	    call c,$CC90
3FF3  91      	    sub  c
3FF4  DC9248  	    call c,$4892
3FF7  93      	    sub  e
3FF8  54      	    ld   d,h
3FF9  93      	    sub  e
3FFA  58      	    ld   e,b
3FFB  93      	    sub  e
3FFC  C490CC  	    call nz,$CC90

                ;;; ============ start of suprmous.x5 =============

3FFF  90      	    sub  b
4000  D0      	    ret  nc
4001  90      	    sub  b
4002  44      	    ld   b,h
4003  91      	    sub  c
4004  D0      	    ret  nc
4005  91      	    sub  c
4006  44      	    ld   b,h
4007  93      	    sub  e
4008  48      	    ld   c,b
4009  93      	    sub  e
400A  4C      	    ld   c,h
400B  93      	    sub  e
400C  54      	    ld   d,h
400D  93      	    sub  e
400E  5D      	    ld   e,l
400F  40      	    ld   b,b
4010  62      	    ld   h,d
4011  40      	    ld   b,b
4012  67      	    ld   h,a
4013  40      	    ld   b,b
4014  6C      	    ld   l,h
4015  40      	    ld   b,b
4016  71      	    ld   (hl),c
4017  40      	    ld   b,b
4018  5D      	    ld   e,l
4019  40      	    ld   b,b
401A  62      	    ld   h,d
401B  40      	    ld   b,b
401C  67      	    ld   h,a
401D  40      	    ld   b,b
401E  6C      	    ld   l,h
401F  40      	    ld   b,b
4020  71      	    ld   (hl),c
4021  40      	    ld   b,b
4022  5D      	    ld   e,l
4023  40      	    ld   b,b
4024  62      	    ld   h,d
4025  40      	    ld   b,b
4026  67      	    ld   h,a
4027  40      	    ld   b,b
4028  6C      	    ld   l,h
4029  40      	    ld   b,b
402A  71      	    ld   (hl),c
402B  40      	    ld   b,b
402C  5D      	    ld   e,l
402D  40      	    ld   b,b
402E  62      	    ld   h,d
402F  40      	    ld   b,b
4030  67      	    ld   h,a
4031  40      	    ld   b,b
4032  6C      	    ld   l,h
4033  40      	    ld   b,b
4034  71      	    ld   (hl),c
4035  40      	    ld   b,b
4036  5D      	    ld   e,l
4037  40      	    ld   b,b
4038  62      	    ld   h,d
4039  40      	    ld   b,b
403A  67      	    ld   h,a
403B  40      	    ld   b,b
403C  6C      	    ld   l,h
403D  40      	    ld   b,b
403E  71      	    ld   (hl),c
403F  40      	    ld   b,b
4040  5D      	    ld   e,l
4041  40      	    ld   b,b
4042  62      	    ld   h,d
4043  40      	    ld   b,b
4044  67      	    ld   h,a
4045  40      	    ld   b,b
4046  6C      	    ld   l,h
4047  40      	    ld   b,b
4048  71      	    ld   (hl),c
4049  40      	    ld   b,b
404A  5D      	    ld   e,l
404B  40      	    ld   b,b
404C  62      	    ld   h,d
404D  40      	    ld   b,b
404E  67      	    ld   h,a
404F  40      	    ld   b,b
4050  6C      	    ld   l,h
4051  40      	    ld   b,b
4052  71      	    ld   (hl),c
4053  40      	    ld   b,b
4054  5D      	    ld   e,l
4055  40      	    ld   b,b
4056  00      	    nop
4057  00      	    nop
4058  00      	    nop
4059  00      	    nop
405A  00      	    nop
405B  00      	    nop
405C  00      	    nop
405D  E0      	    ret  po
405E  E1      	    pop  hl
405F  E2E387  	    jp   po,$87E3
4062  E4E5E6  	    call po,$E6E5
4065  E7      	    rst  $20
4066  87      	    add  a,a
4067  E8      	    ret  pe
4068  E9      	    jp   (hl)
4069  EAEB87  	    jp   pe,$87EB
406C  ECEDEE  	    call pe,$EEED
406F  EF      	    rst  $28
4070  87      	    add  a,a
4071  DCDDDE  	    call c,$DEDD
4074  DF      	    rst  $18
4075  87      	    add  a,a
4076  00      	    nop
4077  00      	    nop
4078  00      	    nop
4079  00      	    nop
407A  00      	    nop
407B  00      	    nop
407C  00      	    nop

407D  3AA080  	    ld   a,(carrying_1)
4080  A7      	    and  a
4081  C2A940  	    jp   nz,$40A9
4084  219C80  	    ld   hl,$809C
4087  3E00    	    ld   a,$00
4089  060F    	    ld   b,$0F
408B  77      	    ld   (hl),a
408C  23      	    inc  hl
408D  10FC    	    djnz $408B
408F  C39240  	    jp   $4092
4092  210880  	    ld   hl,$8008
4095  3AA580  	    ld   a,(carry_x)
4098  77      	    ld   (hl),a
4099  23      	    inc  hl
409A  3AA680  	    ld   a,(carry_tile)
409D  77      	    ld   (hl),a
409E  23      	    inc  hl
409F  3AA780  	    ld   a,($80A7)
40A2  77      	    ld   (hl),a
40A3  23      	    inc  hl
40A4  3AA880  	    ld   a,(carry_y)
40A7  77      	    ld   (hl),a
40A8  C9      	    ret
40A9  3AA180  	    ld   a,(carrying_2)
40AC  A7      	    and  a
40AD  C22041  	    jp   nz,$4120
40B0  11A180  	    ld   de,carrying_2
40B3  211441  	    ld   hl,$4114
40B6  010900  	    ld   bc,$0009
40B9  EDB0    	    ldir
40BB  3A0684  	    ld   a,(player_x)
40BE  C600    	    add  a,$00
40C0  32A580  	    ld   (carry_x),a
40C3  3A0784  	    ld   a,(player_y)
40C6  C6F0    	    add  a,$F0  ; y - 16 (on head!)
40C8  32A880  	    ld   (carry_y),a
40CB  3A9F80  	    ld   a,($809F)
40CE  0E00    	    ld   c,$00
40D0  FE7A    	    cp   $7A
40D2  CAF440  	    jp   z,$40F4
40D5  0C      	    inc  c
40D6  0C      	    inc  c
40D7  FE7E    	    cp   $7E
40D9  CAF440  	    jp   z,$40F4
40DC  0C      	    inc  c
40DD  0C      	    inc  c
40DE  FE7C    	    cp   $7C
40E0  CAF440  	    jp   z,$40F4
40E3  0C      	    inc  c
40E4  0C      	    inc  c
40E5  FE7D    	    cp   $7D
40E7  CAF440  	    jp   z,$40F4
40EA  0C      	    inc  c
40EB  0C      	    inc  c
40EC  FE7B    	    cp   $7B
40EE  CAF440  	    jp   z,$40F4
40F1  C38440  	    jp   $4084
40F4  210641  	    ld   hl,pickup_data
40F7  0600    	    ld   b,$00
40F9  09      	    add  hl,bc
40FA  7E      	    ld   a,(hl)
40FB  32A680  	    ld   (carry_tile),a
40FE  23      	    inc  hl
40FF  7E      	    ld   a,(hl)
4100  32A780  	    ld   ($80A7),a
4103  C39240  	    jp   $4092

                pickup_data:
4106                db $32, $07, $36, $07, $34, $07, $35, $07
410E                db $33, $07, $00, $00, $00, $00, $01, $01
4116                db $00, $00, $00, $00, $00, $00, $00, $00
411E                db $00, $00

4120  3AA280  	    ld   a,(carrying_3)
4123  FE01    	    cp   $01
4125  CA3541  	    jp   z,$4135
4128  FE02    	    cp   $02
412A  CA4841  	    jp   z,$4148
412D  FE03    	    cp   $03
412F  CA6741  	    jp   z,$4167
4132  C38440  	    jp   $4084
4135  3A0684  	    ld   a,(player_x)
4138  C600    	    add  a,$00
413A  32A580  	    ld   (carry_x),a
413D  3A0784  	    ld   a,(player_y)
4140  C6F0    	    add  a,$F0
4142  32A880  	    ld   (carry_y),a
4145  C39240  	    jp   $4092
4148  3AA380  	    ld   a,($80A3)
414B  3C      	    inc  a
414C  32A380  	    ld   ($80A3),a
414F  FE0A    	    cp   $0A
4151  DA5C41  	    jp   c,$415C
4154  3E03    	    ld   a,$03
4156  32A280  	    ld   (carrying_3),a
4159  C39240  	    jp   $4092
415C  3AA880  	    ld   a,(carry_y)
415F  C602    	    add  a,$02
4161  32A880  	    ld   (carry_y),a
4164  C39240  	    jp   $4092
4167  219E80  	    ld   hl,$809E
416A  5E      	    ld   e,(hl)
416B  23      	    inc  hl
416C  56      	    ld   d,(hl)
416D  CDF23E  	    call $3EF2
4170  2A9C80  	    ld   hl,($809C)
4173  0E01    	    ld   c,$01
4175  CDB23E  	    call $3EB2
4178  C38440  	    jp   $4084


417B  3E00    	    ld   a,$00
417D  328081  	    ld   ($8180),a
4180  3A8081  	    ld   a,($8180)
4183  A7      	    and  a
4184  C29B41  	    jp   nz,$419B
4187  3E39    	    ld   a,$39
4189  326590  	    ld   ($9065),a
418C  3E85    	    ld   a,$85
418E  326594  	    ld   ($9465),a
4191  3E3A    	    ld   a,$3A
4193  328590  	    ld   ($9085),a
4196  3E85    	    ld   a,$85
4198  328594  	    ld   ($9485),a
419B  3E00    	    ld   a,$00
419D  328181  	    ld   ($8181),a
41A0  3A8181  	    ld   a,($8181)
41A3  A7      	    and  a
41A4  C2BB41  	    jp   nz,$41BB
41A7  3E39    	    ld   a,$39
41A9  328593  	    ld   ($9385),a
41AC  3E85    	    ld   a,$85
41AE  328597  	    ld   ($9785),a
41B1  3E3A    	    ld   a,$3A
41B3  32A593  	    ld   ($93A5),a
41B6  3E85    	    ld   a,$85
41B8  32A597  	    ld   ($97A5),a
41BB  C9      	    ret
41BC  CDEF48  	    call $48EF
41BF  3AC185  	    ld   a,($85C1)
41C2  A7      	    and  a
41C3  C2D341  	    jp   nz,$41D3
41C6  32C085  	    ld   ($85C0),a
41C9  21C485  	    ld   hl,$85C4
41CC  060C    	    ld   b,$0C
41CE  77      	    ld   (hl),a
41CF  23      	    inc  hl
41D0  10FC    	    djnz $41CE
41D2  C9      	    ret

                ;;
41D3  3AC485  	    ld   a,($85C4)
41D6  A7      	    and  a
41D7  C21742  	    jp   nz,$4217
41DA  21C185  	    ld   hl,$85C1
41DD  11C485  	    ld   de,$85C4
41E0  010300  	    ld   bc,$0003
41E3  EDB0    	    ldir
41E5  3E95    	    ld   a,$95
41E7  3200B8  	    ld   (watchdog),a
41EA  3E01    	    ld   a,$01
41EC  32C085  	    ld   ($85C0),a
41EF  3AC585  	    ld   a,($85C5)
41F2  FE80    	    cp   $80
41F4  DA0742  	    jp   c,$4207
41F7  3E25    	    ld   a,$25
41F9  326590  	    ld   ($9065),a
41FC  328590  	    ld   ($9085),a
41FF  3E01    	    ld   a,$01
4201  328081  	    ld   ($8180),a
4204  C33242  	    jp   $4232
4207  3E25    	    ld   a,$25
4209  328593  	    ld   ($9385),a
420C  32A593  	    ld   ($93A5),a
420F  3E01    	    ld   a,$01
4211  328181  	    ld   ($8181),a
4214  C33242  	    jp   $4232
4217  3AC685  	    ld   a,($85C6)
421A  FEE0    	    cp   $E0
421C  D22742  	    jp   nc,$4227
421F  C602    	    add  a,$02
4221  32C685  	    ld   ($85C6),a
4224  C33242  	    jp   $4232


4227  21C085  	    ld   hl,$85C0
422A  0610    	    ld   b,$10
422C  3E00    	    ld   a,$00
422E  77      	    ld   (hl),a
422F  23      	    inc  hl
4230  10FC    	    djnz $422E
4232  211C80  	    ld   hl,$801C
4235  3AC585  	    ld   a,($85C5)
4238  77      	    ld   (hl),a
4239  23      	    inc  hl
423A  3E37    	    ld   a,$37
423C  77      	    ld   (hl),a
423D  23      	    inc  hl
423E  3E05    	    ld   a,$05
4240  77      	    ld   (hl),a
4241  23      	    inc  hl
4242  3AC685  	    ld   a,($85C6)
4245  77      	    ld   (hl),a
4246  C9      	    ret


4247  CDEF48  	    call $48EF
424A  217984  	    ld   hl,$8479
424D  7E      	    ld   a,(hl)
424E  A7      	    and  a
424F  C25D42  	    jp   nz,$425D
4252  3601    	    ld   (hl),$01
4254  2B      	    dec  hl
4255  3E03    	    ld   a,$03
4257  77      	    ld   (hl),a
4258  3E00    	    ld   a,$00
425A  327484  	    ld   ($8474),a
425D  3A8084  	    ld   a,($8480)
4260  47      	    ld   b,a
4261  A7      	    and  a
4262  CA1B44  	    jp   z,$441B
4265  E680    	    and  $80
4267  C20643  	    jp   nz,$4306
426A  78      	    ld   a,b
426B  E640    	    and  $40
426D  C2D142  	    jp   nz,$42D1
4270  78      	    ld   a,b
4271  E620    	    and  $20
4273  CA2B44  	    jp   z,$442B
4276  3A00A0  	    ld   a,(hw_in_0)
4279  E610    	    and  $10
427B  CA4344  	    jp   z,$4443
427E  3A3080  	    ld   a,(is_playing)
4281  A7      	    and  a
4282  CA4344  	    jp   z,$4443
4285  3EE0    	    ld   a,$E0
4287  3200B8  	    ld   (watchdog),a
428A  218384  	    ld   hl,$8483
428D  7E      	    ld   a,(hl)
428E  23      	    inc  hl
428F  BE      	    cp   (hl)
4290  2039    	    jr   nz,$42CB
4292  7E      	    ld   a,(hl)
4293  23      	    inc  hl
4294  BE      	    cp   (hl)
4295  2805    	    jr   z,$429C
4297  CB27    	    sla  a
4299  3C      	    inc  a
429A  1802    	    jr   $429E
429C  CB27    	    sla  a
429E  A7      	    and  a
429F  C2A942  	    jp   nz,$42A9
42A2  F5      	    push af
42A3  3E01    	    ld   a,$01
42A5  327484  	    ld   ($8474),a
42A8  F1      	    pop  af
42A9  328984  	    ld   ($8489),a
42AC  21FE44  	    ld   hl,$44FE
42AF  47      	    ld   b,a
42B0  CB27    	    sla  a
42B2  80      	    add  a,b
42B3  85      	    add  a,l
42B4  6F      	    ld   l,a
42B5  3001    	    jr   nc,$42B8
42B7  24      	    inc  h
42B8  114180  	    ld   de,$8041
42BB  3E01    	    ld   a,$01
42BD  324080  	    ld   ($8040),a
42C0  010300  	    ld   bc,$0003
42C3  EDB0    	    ldir
42C5  3E80    	    ld   a,$80
42C7  328084  	    ld   ($8480),a
42CA  C9      	    ret
42CB  3E40    	    ld   a,$40
42CD  328084  	    ld   ($8480),a
42D0  C9      	    ret
42D1  3A8084  	    ld   a,($8480)
42D4  E6BF    	    and  $BF
42D6  200D    	    jr   nz,$42E5
42D8  3C      	    inc  a
42D9  F640    	    or   $40
42DB  328084  	    ld   ($8480),a
42DE  21B400  	    ld   hl,$00B4
42E1  228184  	    ld   ($8481),hl
42E4  C9      	    ret
42E5  2A8184  	    ld   hl,($8481)
42E8  2B      	    dec  hl
42E9  228184  	    ld   ($8481),hl
42EC  7C      	    ld   a,h
42ED  B5      	    or   l
42EE  C0      	    ret  nz
42EF  217884  	    ld   hl,$8478
42F2  7E      	    ld   a,(hl)
42F3  3D      	    dec  a
42F4  CAFD42  	    jp   z,$42FD
42F7  77      	    ld   (hl),a
42F8  AF      	    xor  a
42F9  328084  	    ld   ($8480),a
42FC  C9      	    ret
42FD  77      	    ld   (hl),a
42FE  23      	    inc  hl
42FF  77      	    ld   (hl),a
4300  3E01    	    ld   a,$01
4302  323380  	    ld   ($8033),a
4305  C9      	    ret

                ;;
4306  3A8084  	    ld   a,($8480)
4309  E67F    	    and  $7F
430B  FE03    	    cp   $03
430D  D2E743  	    jp   nc,$43E7
4310  FE02    	    cp   $02
4312  D22E43  	    jp   nc,$432E
4315  3C      	    inc  a
4316  F680    	    or   $80
4318  328084  	    ld   ($8480),a
431B  3A7484  	    ld   a,($8474)
431E  A7      	    and  a
431F  CA2843  	    jp   z,$4328
4322  3E9A    	    ld   a,$9A
4324  3200B8  	    ld   (watchdog),a
4327  C9      	    ret
4328  3E91    	    ld   a,$91
432A  3200B8  	    ld   (watchdog),a
432D  C9      	    ret

                ;;
432E  3C      	    inc  a
432F  F680    	    or   $80
4331  328084  	    ld   ($8480),a
4334  3A8984  	    ld   a,($8489)
4337  CB27    	    sla  a
4339  211645  	    ld   hl,$4516
433C  85      	    add  a,l
433D  6F      	    ld   l,a
433E  7C      	    ld   a,h
433F  CE00    	    adc  a,$00
4341  67      	    ld   h,a
4342  7E      	    ld   a,(hl)
4343  328A84  	    ld   ($848A),a
4346  23      	    inc  hl
4347  7E      	    ld   a,(hl)
4348  328B84  	    ld   ($848B),a
434B  3A7484  	    ld   a,($8474)
434E  A7      	    and  a
434F  CAE043  	    jp   z,$43E0
4352  3A3080  	    ld   a,(is_playing)
4355  A7      	    and  a
4356  CA6C43  	    jp   z,$436C
4359  3A2380  	    ld   a,(credits)
435C  FE09    	    cp   $09
435E  D2BA43  	    jp   nc,$43BA
4361  C601    	    add  a,$01
4363  27      	    daa
4364  322380  	    ld   (credits),a
4367  0601    	    ld   b,$01
4369  CDBC07  	    call $07BC
436C  21EC92  	    ld   hl,$92EC
436F  11E0FF  	    ld   de,$FFE0
4372  060F    	    ld   b,$0F
4374  CDAE43  	    call $43AE
4377  21ED92  	    ld   hl,$92ED
437A  11C243  	    ld   de,$43C2
437D  060F    	    ld   b,$0F
437F  CD9C43  	    call $439C
4382  21EE92  	    ld   hl,$92EE
4385  060F    	    ld   b,$0F
4387  CD9C43  	    call $439C
438A  21EF92  	    ld   hl,$92EF
438D  11E0FF  	    ld   de,$FFE0
4390  060F    	    ld   b,$0F
4392  CDAE43  	    call $43AE
4395  21C800  	    ld   hl,$00C8
4398  228184  	    ld   ($8481),hl
439B  C9      	    ret
439C  1A      	    ld   a,(de)
439D  77      	    ld   (hl),a
439E  CBD4    	    set  2,h
43A0  3680    	    ld   (hl),$80
43A2  CB94    	    res  2,h
43A4  C5      	    push bc
43A5  01E0FF  	    ld   bc,$FFE0
43A8  09      	    add  hl,bc
43A9  C1      	    pop  bc
43AA  13      	    inc  de
43AB  10EF    	    djnz $439C
43AD  C9      	    ret
43AE  3624    	    ld   (hl),$24
43B0  CBD4    	    set  2,h
43B2  3680    	    ld   (hl),$80
43B4  CB94    	    res  2,h
43B6  19      	    add  hl,de
43B7  10F5    	    djnz $43AE
43B9  C9      	    ret
43BA  3E09    	    ld   a,$09
43BC  322380  	    ld   (credits),a
43BF  C36743  	    jp   $4367
43C2  24      	    inc  h
43C3  1C      	    inc  e
43C4  19      	    add  hl,de
43C5  0E0C    	    ld   c,$0C
43C7  12      	    ld   (de),a
43C8  0A      	    ld   a,(bc)
43C9  15      	    dec  d
43CA  24      	    inc  h
43CB  0B      	    dec  bc
43CC  1817    	    jr   $43E5
43CE  1E1C    	    ld   e,$1C
43D0  24      	    inc  h
43D1  24      	    inc  h
43D2  0C      	    inc  c
43D3  1B      	    dec  de
43D4  0E0D    	    ld   c,$0D
43D6  12      	    ld   (de),a
43D7  1D      	    dec  e
43D8  24      	    inc  h
43D9  19      	    add  hl,de
43DA  15      	    dec  d
43DB  1E1C    	    ld   e,$1C
43DD  24      	    inc  h
43DE  012421  	    ld   bc,$2124
43E1  F0      	    ret  p
43E2  00      	    nop
43E3  228184  	    ld   ($8481),hl
43E6  C9      	    ret
43E7  2A8184  	    ld   hl,($8481)
43EA  2B      	    dec  hl
43EB  228184  	    ld   ($8481),hl
43EE  7D      	    ld   a,l
43EF  B4      	    or   h
43F0  2012    	    jr   nz,$4404
43F2  3E01    	    ld   a,$01
43F4  323280  	    ld   ($8032),a
43F7  3EA0    	    ld   a,$A0
43F9  3200B8  	    ld   (watchdog),a
43FC  AF      	    xor  a
43FD  217884  	    ld   hl,$8478
4400  77      	    ld   (hl),a
4401  23      	    inc  hl
4402  77      	    ld   (hl),a
4403  C9      	    ret
4404  7D      	    ld   a,l
4405  E603    	    and  $03
4407  C0      	    ret  nz
4408  2A8A84  	    ld   hl,($848A)
440B  112000  	    ld   de,$0020
440E  0604    	    ld   b,$04
4410  7E      	    ld   a,(hl)
4411  3C      	    inc  a
4412  E607    	    and  $07
4414  F684    	    or   $84
4416  77      	    ld   (hl),a
4417  19      	    add  hl,de
4418  10F6    	    djnz $4410
441A  C9      	    ret
441B  3C      	    inc  a
441C  328084  	    ld   ($8480),a
441F  3EE0    	    ld   a,$E0
4421  3200B8  	    ld   (watchdog),a
4424  219001  	    ld   hl,$0190
4427  228184  	    ld   ($8481),hl
442A  C9      	    ret
442B  3A8084  	    ld   a,($8480)
442E  3C      	    inc  a
442F  328084  	    ld   ($8480),a
4432  FE04    	    cp   $04
4434  2007    	    jr   nz,$443D
4436  CD5344  	    call $4453
4439  3E20    	    ld   a,$20
443B  18F2    	    jr   $442F
443D  3ECA    	    ld   a,$CA
443F  3200B8  	    ld   (watchdog),a
4442  C9      	    ret
4443  2A8184  	    ld   hl,($8481)
4446  2B      	    dec  hl
4447  228184  	    ld   ($8481),hl
444A  7C      	    ld   a,h
444B  B5      	    or   l
444C  CA8542  	    jp   z,$4285
444F  7D      	    ld   a,l
4450  E607    	    and  $07
4452  C0      	    ret  nz
4453  118384  	    ld   de,$8483
4456  212645  	    ld   hl,$4526
4459  3A8684  	    ld   a,($8486)
445C  CDA744  	    call $44A7
445F  FE11    	    cp   $11
4461  2001    	    jr   nz,$4464
4463  AF      	    xor  a
4464  13      	    inc  de
4465  328684  	    ld   ($8486),a
4468  213745  	    ld   hl,$4537
446B  3A8784  	    ld   a,($8487)
446E  CDA744  	    call $44A7
4471  FE10    	    cp   $10
4473  2001    	    jr   nz,$4476
4475  AF      	    xor  a
4476  13      	    inc  de
4477  328784  	    ld   ($8487),a
447A  214745  	    ld   hl,$4547
447D  3A8884  	    ld   a,($8488)
4480  CDA744  	    call $44A7
4483  FE0F    	    cp   $0F
4485  2001    	    jr   nz,$4488
4487  AF      	    xor  a
4488  328884  	    ld   ($8488),a
448B  116892  	    ld   de,$9268
448E  3A8384  	    ld   a,($8483)
4491  CDB344  	    call $44B3
4494  11E891  	    ld   de,$91E8
4497  3A8484  	    ld   a,($8484)
449A  CDB344  	    call $44B3
449D  116891  	    ld   de,$9168
44A0  3A8584  	    ld   a,($8485)
44A3  CDB344  	    call $44B3
44A6  C9      	    ret
44A7  F5      	    push af
44A8  85      	    add  a,l
44A9  6F      	    ld   l,a
44AA  7C      	    ld   a,h
44AB  CE00    	    adc  a,$00
44AD  67      	    ld   h,a
44AE  7E      	    ld   a,(hl)
44AF  12      	    ld   (de),a
44B0  F1      	    pop  af
44B1  3C      	    inc  a
44B2  C9      	    ret
44B3  FE03    	    cp   $03
44B5  2006    	    jr   nz,$44BD
44B7  3E92    	    ld   a,$92
44B9  0E86    	    ld   c,$86
44BB  1818    	    jr   $44D5
44BD  FE02    	    cp   $02
44BF  2006    	    jr   nz,$44C7
44C1  3E48    	    ld   a,$48
44C3  0E87    	    ld   c,$87
44C5  180E    	    jr   $44D5
44C7  FE01    	    cp   $01
44C9  2006    	    jr   nz,$44D1
44CB  3E89    	    ld   a,$89
44CD  0E86    	    ld   c,$86
44CF  1804    	    jr   $44D5
44D1  3E80    	    ld   a,$80
44D3  0E84    	    ld   c,$84
44D5  D5      	    push de
44D6  F5      	    push af
44D7  3E04    	    ld   a,$04
44D9  82      	    add  a,d
44DA  67      	    ld   h,a
44DB  6B      	    ld   l,e
44DC  F1      	    pop  af
44DD  D1      	    pop  de
44DE  0603    	    ld   b,$03
44E0  C5      	    push bc
44E1  D5      	    push de
44E2  0603    	    ld   b,$03
44E4  12      	    ld   (de),a
44E5  3C      	    inc  a
44E6  13      	    inc  de
44E7  71      	    ld   (hl),c
44E8  23      	    inc  hl
44E9  10F9    	    djnz $44E4
44EB  D1      	    pop  de
44EC  F5      	    push af
44ED  7B      	    ld   a,e
44EE  C620    	    add  a,$20
44F0  5F      	    ld   e,a
44F1  7A      	    ld   a,d
44F2  CE00    	    adc  a,$00
44F4  57      	    ld   d,a
44F5  C604    	    add  a,$04
44F7  67      	    ld   h,a
44F8  6B      	    ld   l,e
44F9  F1      	    pop  af
44FA  C1      	    pop  bc
44FB  10E3    	    djnz $44E0
44FD  C9      	    ret
44FE  00      	    nop
44FF  15      	    dec  d
4500  00      	    nop
4501  00      	    nop
4502  08      	    ex   af,af'
4503  00      	    nop
4504  00      	    nop
4505  1000    	    djnz $4507
4507  00      	    nop
4508  05      	    dec  b
4509  00      	    nop
450A  00      	    nop
450B  08      	    ex   af,af'
450C  00      	    nop
450D  00      	    nop
450E  04      	    inc  b
450F  00      	    nop
4510  00      	    nop
4511  0600    	    ld   b,$00
4513  00      	    nop
4514  02      	    ld   (bc),a
4515  00      	    nop
4516  319635  	    ld   sp,$3596
4519  96      	    sub  (hl)
451A  39      	    add  hl,sp
451B  96      	    sub  (hl)
451C  3D      	    dec  a
451D  96      	    sub  (hl)
451E  51      	    ld   d,c
451F  94      	    sub  h
4520  55      	    ld   d,l
4521  94      	    sub  h
4522  59      	    ld   e,c
4523  94      	    sub  h
4524  5D      	    ld   e,l
4525  94      	    sub  h
4526  010001  	    ld   bc,$0100
4529  02      	    ld   (bc),a
452A  03      	    inc  bc
452B  02      	    ld   (bc),a
452C  010301  	    ld   bc,$0103
452F  03      	    inc  bc
4530  02      	    ld   (bc),a
4531  010302  	    ld   bc,$0203
4534  00      	    nop
4535  010201  	    ld   bc,$0102
4538  02      	    ld   (bc),a
4539  03      	    inc  bc
453A  02      	    ld   (bc),a
453B  010302  	    ld   bc,$0203
453E  010302  	    ld   bc,$0203
4541  010301  	    ld   bc,$0103
4544  02      	    ld   (bc),a
4545  00      	    nop
4546  02      	    ld   (bc),a
4547  02      	    ld   (bc),a
4548  00      	    nop
4549  010303  	    ld   bc,$0303
454C  02      	    ld   (bc),a
454D  010302  	    ld   bc,$0203
4550  010302  	    ld   bc,$0203
4553  03      	    inc  bc
4554  010221  	    ld   bc,$2102
4557  60      	    ld   h,b
4558  80      	    add  a,b
4559  7E      	    ld   a,(hl)
455A  A7      	    and  a
455B  C26D45  	    jp   nz,$456D
455E  23      	    inc  hl
455F  77      	    ld   (hl),a
4560  23      	    inc  hl
4561  77      	    ld   (hl),a
4562  3E01    	    ld   a,$01
4564  326080  	    ld   ($8060),a
4567  3ED1    	    ld   a,$D1
4569  3200B8  	    ld   (watchdog),a
456C  C9      	    ret
456D  23      	    inc  hl
456E  34      	    inc  (hl)
456F  7E      	    ld   a,(hl)
4570  FE06    	    cp   $06
4572  C0      	    ret  nz
4573  3600    	    ld   (hl),$00
4575  23      	    inc  hl
4576  7E      	    ld   a,(hl)
4577  34      	    inc  (hl)
4578  FE24    	    cp   $24
457A  D29345  	    jp   nc,$4593
457D  07      	    rlca
457E  07      	    rlca
457F  4F      	    ld   c,a
4580  0600    	    ld   b,$00
4582  210446  	    ld   hl,$4604
4585  09      	    add  hl,bc
4586  5E      	    ld   e,(hl)
4587  23      	    inc  hl
4588  56      	    ld   d,(hl)
4589  23      	    inc  hl
458A  46      	    ld   b,(hl)
458B  23      	    inc  hl
458C  4E      	    ld   c,(hl)
458D  EB      	    ex   de,hl
458E  70      	    ld   (hl),b
458F  CBD4    	    set  2,h
4591  71      	    ld   (hl),c
4592  C9      	    ret
4593  FE2D    	    cp   $2D
4595  C2D945  	    jp   nz,$45D9
4598  21F592  	    ld   hl,$92F5
459B  11C945  	    ld   de,$45C9
459E  0610    	    ld   b,$10
45A0  0E86    	    ld   c,$86
45A2  1A      	    ld   a,(de)
45A3  77      	    ld   (hl),a
45A4  CBD4    	    set  2,h
45A6  71      	    ld   (hl),c
45A7  CB94    	    res  2,h
45A9  13      	    inc  de
45AA  C5      	    push bc
45AB  01E0FF  	    ld   bc,$FFE0
45AE  09      	    add  hl,bc
45AF  C1      	    pop  bc
45B0  10F0    	    djnz $45A2
45B2  3E8C    	    ld   a,$8C
45B4  3200B8  	    ld   (watchdog),a
45B7  3E3C    	    ld   a,$3C
45B9  320D92  	    ld   ($920D),a
45BC  3C      	    inc  a
45BD  320E92  	    ld   ($920E),a
45C0  3C      	    inc  a
45C1  320F92  	    ld   ($920F),a
45C4  3C      	    inc  a
45C5  32EF91  	    ld   ($91EF),a
45C8  C9      	    ret
45C9  1F      	    rra
45CA  0E1B    	    ld   c,$1B
45CC  222415  	    ld   ($1524),hl
45CF  1E0C    	    ld   e,$0C
45D1  14      	    inc  d
45D2  222416  	    ld   ($1624),hl
45D5  181E    	    jr   $45F5
45D7  1C      	    inc  e
45D8  0EFE    	    ld   c,$FE
45DA  3B      	    dec  sp
45DB  CAF145  	    jp   z,$45F1
45DE  FE46    	    cp   $46
45E0  C0      	    ret  nz
45E1  3E00    	    ld   a,$00
45E3  326080  	    ld   ($8060),a
45E6  3E01    	    ld   a,$01
45E8  323380  	    ld   ($8033),a
45EB  3EE0    	    ld   a,$E0
45ED  3200B8  	    ld   (watchdog),a
45F0  C9      	    ret
45F1  3E65    	    ld   a,$65
45F3  320D92  	    ld   ($920D),a
45F6  3C      	    inc  a
45F7  320E92  	    ld   ($920E),a
45FA  3C      	    inc  a
45FB  320F92  	    ld   ($920F),a
45FE  3E61    	    ld   a,$61
4600  32EF91  	    ld   ($91EF),a
4603  C9      	    ret
4604  CC9158  	    call z,$5891
4607  84      	    add  a,h
4608  2F      	    cpl
4609  92      	    sub  d
460A  6D      	    ld   l,l
460B  84      	    add  a,h
460C  CE91    	    adc  a,$91
460E  5A      	    ld   e,d
460F  84      	    add  a,h
4610  2D      	    dec  l
4611  92      	    sub  d
4612  6B      	    ld   l,e
4613  84      	    add  a,h
4614  4B      	    ld   c,e
4615  92      	    sub  d
4616  6F      	    ld   l,a
4617  84      	    add  a,h
4618  50      	    ld   d,b
4619  92      	    sub  d
461A  74      	    ld   (hl),h
461B  84      	    add  a,h
461C  D0      	    ret  nc
461D  91      	    sub  c
461E  5C      	    ld   e,h
461F  84      	    add  a,h
4620  AB      	    xor  e
4621  91      	    sub  c
4622  51      	    ld   d,c
4623  84      	    add  a,h
4624  EB      	    ex   de,hl
4625  91      	    sub  c
4626  5D      	    ld   e,l
4627  84      	    add  a,h
4628  0E92    	    ld   c,$92
462A  66      	    ld   h,(hl)
462B  84      	    add  a,h
462C  AF      	    xor  a
462D  91      	    sub  c
462E  55      	    ld   d,l
462F  84      	    add  a,h
4630  0C      	    inc  c
4631  92      	    sub  d
4632  64      	    ld   h,h
4633  84      	    add  a,h
4634  2B      	    dec  hl
4635  92      	    sub  d
4636  69      	    ld   l,c
4637  84      	    add  a,h
4638  4E      	    ld   c,(hl)
4639  92      	    sub  d
463A  72      	    ld   (hl),d
463B  84      	    add  a,h
463C  AD      	    xor  l
463D  91      	    sub  c
463E  53      	    ld   d,e
463F  84      	    add  a,h
4640  CB91    	    res  2,c
4642  57      	    ld   d,a
4643  84      	    add  a,h
4644  1092    	    djnz $45D8
4646  68      	    ld   l,b
4647  84      	    add  a,h
4648  AE      	    xor  (hl)
4649  91      	    sub  c
464A  54      	    ld   d,h
464B  84      	    add  a,h
464C  B0      	    or   b
464D  91      	    sub  c
464E  56      	    ld   d,(hl)
464F  84      	    add  a,h
4650  ED      	    db   $ed
4651  91      	    sub  c
4652  5F      	    ld   e,a
4653  84      	    add  a,h
4654  CF      	    rst  $08
4655  91      	    sub  c
4656  5B      	    ld   e,e
4657  84      	    add  a,h
4658  4C      	    ld   c,h
4659  92      	    sub  d
465A  70      	    ld   (hl),b
465B  84      	    add  a,h
465C  4F      	    ld   c,a
465D  92      	    sub  d
465E  73      	    ld   (hl),e
465F  84      	    add  a,h
4660  AC      	    xor  h
4661  91      	    sub  c
4662  52      	    ld   d,d
4663  84      	    add  a,h
4664  F0      	    ret  p
4665  91      	    sub  c
4666  62      	    ld   h,d
4667  84      	    add  a,h
4668  3092    	    jr   nc,$45FC
466A  6E      	    ld   l,(hl)
466B  84      	    add  a,h
466C  0B      	    dec  bc
466D  92      	    sub  d
466E  63      	    ld   h,e
466F  84      	    add  a,h
4670  EF      	    rst  $28
4671  91      	    sub  c
4672  61      	    ld   h,c
4673  84      	    add  a,h
4674  2C      	    inc  l
4675  92      	    sub  d
4676  6A      	    ld   l,d
4677  84      	    add  a,h
4678  CD9159  	    call $5991
467B  84      	    add  a,h
467C  EC915E  	    call pe,$5E91
467F  84      	    add  a,h
4680  2E92    	    ld   l,$92
4682  6C      	    ld   l,h
4683  84      	    add  a,h
4684  0F      	    rrca
4685  92      	    sub  d
4686  67      	    ld   h,a
4687  84      	    add  a,h
4688  0D      	    dec  c
4689  92      	    sub  d
468A  65      	    ld   h,l
468B  84      	    add  a,h
468C  4D      	    ld   c,l
468D  92      	    sub  d
468E  71      	    ld   (hl),c
468F  84      	    add  a,h
4690  EE91    	    xor  $91
4692  60      	    ld   h,b
4693  84      	    add  a,h
4694  216880  	    ld   hl,$8068
4697  7E      	    ld   a,(hl)
4698  A7      	    and  a
4699  C20547  	    jp   nz,$4705
469C  3601    	    ld   (hl),$01
469E  23      	    inc  hl
469F  3600    	    ld   (hl),$00
46A1  23      	    inc  hl
46A2  3600    	    ld   (hl),$00
46A4  23      	    inc  hl
46A5  3600    	    ld   (hl),$00
46A7  23      	    inc  hl
46A8  3600    	    ld   (hl),$00
46AA  216590  	    ld   hl,$9065
46AD  11FE46  	    ld   de,$46FE
46B0  0605    	    ld   b,$05
46B2  E5      	    push hl
46B3  1A      	    ld   a,(de)
46B4  77      	    ld   (hl),a
46B5  13      	    inc  de
46B6  23      	    inc  hl
46B7  10FA    	    djnz $46B3
46B9  E1      	    pop  hl
46BA  CBD4    	    set  2,h
46BC  0605    	    ld   b,$05
46BE  3E84    	    ld   a,$84
46C0  77      	    ld   (hl),a
46C1  23      	    inc  hl
46C2  10FC    	    djnz $46C0
46C4  1A      	    ld   a,(de)
46C5  214993  	    ld   hl,$9349
46C8  77      	    ld   (hl),a
46C9  CBD4    	    set  2,h
46CB  3684    	    ld   (hl),$84
46CD  13      	    inc  de
46CE  1A      	    ld   a,(de)
46CF  0616    	    ld   b,$16
46D1  11E0FF  	    ld   de,$FFE0
46D4  E5      	    push hl
46D5  CB94    	    res  2,h
46D7  19      	    add  hl,de
46D8  77      	    ld   (hl),a
46D9  10FC    	    djnz $46D7
46DB  E1      	    pop  hl
46DC  0616    	    ld   b,$16
46DE  3E84    	    ld   a,$84
46E0  19      	    add  hl,de
46E1  77      	    ld   (hl),a
46E2  10FC    	    djnz $46E0
46E4  218594  	    ld   hl,$9485
46E7  112000  	    ld   de,$0020
46EA  0604    	    ld   b,$04
46EC  0E17    	    ld   c,$17
46EE  3EF5    	    ld   a,$F5
46F0  C5      	    push bc
46F1  E5      	    push hl
46F2  77      	    ld   (hl),a
46F3  23      	    inc  hl
46F4  10FC    	    djnz $46F2
46F6  E1      	    pop  hl
46F7  19      	    add  hl,de
46F8  C1      	    pop  bc
46F9  0D      	    dec  c
46FA  C2F046  	    jp   nz,$46F0
46FD  C9      	    ret
46FE  40      	    ld   b,b
46FF  40      	    ld   b,b
4700  40      	    ld   b,b
4701  40      	    ld   b,b
4702  43      	    ld   b,e
4703  77      	    ld   (hl),a
4704  41      	    ld   b,c
4705  23      	    inc  hl
4706  7E      	    ld   a,(hl)
4707  A7      	    and  a
4708  C25547  	    jp   nz,$4755
470B  23      	    inc  hl
470C  23      	    inc  hl
470D  34      	    inc  (hl)
470E  7E      	    ld   a,(hl)
470F  FE05    	    cp   $05
4711  D8      	    ret  c
4712  3600    	    ld   (hl),$00
4714  23      	    inc  hl
4715  7E      	    ld   a,(hl)
4716  34      	    inc  (hl)
4717  FE2A    	    cp   $2A
4719  D23247  	    jp   nc,$4732
471C  07      	    rlca
471D  07      	    rlca
471E  4F      	    ld   c,a
471F  0600    	    ld   b,$00
4721  21E347  	    ld   hl,$47E3
4724  09      	    add  hl,bc
4725  5E      	    ld   e,(hl)
4726  23      	    inc  hl
4727  56      	    ld   d,(hl)
4728  23      	    inc  hl
4729  46      	    ld   b,(hl)
472A  23      	    inc  hl
472B  4E      	    ld   c,(hl)
472C  EB      	    ex   de,hl
472D  70      	    ld   (hl),b
472E  CBD4    	    set  2,h
4730  71      	    ld   (hl),c
4731  C9      	    ret
4732  7E      	    ld   a,(hl)
4733  FE52    	    cp   $52
4735  CA4947  	    jp   z,$4749
4738  D62B    	    sub  $2B
473A  FE24    	    cp   $24
473C  D0      	    ret  nc
473D  07      	    rlca
473E  07      	    rlca
473F  4F      	    ld   c,a
4740  0600    	    ld   b,$00
4742  210446  	    ld   hl,$4604
4745  CD2447  	    call $4724
4748  C9      	    ret
4749  3600    	    ld   (hl),$00
474B  2B      	    dec  hl
474C  3600    	    ld   (hl),$00
474E  2B      	    dec  hl
474F  3600    	    ld   (hl),$00
4751  2B      	    dec  hl
4752  3601    	    ld   (hl),$01
4754  C9      	    ret
4755  FE01    	    cp   $01
4757  CA7447  	    jp   z,$4774
475A  23      	    inc  hl
475B  23      	    inc  hl
475C  34      	    inc  (hl)
475D  7E      	    ld   a,(hl)
475E  FE06    	    cp   $06
4760  D8      	    ret  c
4761  3600    	    ld   (hl),$00
4763  23      	    inc  hl
4764  34      	    inc  (hl)
4765  7E      	    ld   a,(hl)
4766  FE28    	    cp   $28
4768  D8      	    ret  c
4769  3E00    	    ld   a,$00
476B  326880  	    ld   ($8068),a
476E  3E01    	    ld   a,$01
4770  323380  	    ld   ($8033),a
4773  C9      	    ret
4774  23      	    inc  hl
4775  7E      	    ld   a,(hl)
4776  34      	    inc  (hl)
4777  FE10    	    cp   $10
4779  CA9447  	    jp   z,$4794
477C  FE20    	    cp   $20
477E  CA9B47  	    jp   z,$479B
4781  FE30    	    cp   $30
4783  CABB47  	    jp   z,$47BB
4786  FE40    	    cp   $40
4788  CAC247  	    jp   z,$47C2
478B  FE60    	    cp   $60
478D  C0      	    ret  nz
478E  3600    	    ld   (hl),$00
4790  2B      	    dec  hl
4791  3602    	    ld   (hl),$02
4793  C9      	    ret
4794  218B48  	    ld   hl,$488B
4797  CDC947  	    call $47C9
479A  C9      	    ret
479B  21A348  	    ld   hl,$48A3
479E  CDC947  	    call $47C9
47A1  DD21D507	    ld   ix,$07D5
47A5  3A2580  	    ld   a,($8025)
47A8  07      	    rlca
47A9  5F      	    ld   e,a
47AA  1600    	    ld   d,$00
47AC  DD19    	    add  ix,de
47AE  DD7E00  	    ld   a,(ix+$00)
47B1  32F892  	    ld   ($92F8),a
47B4  DD7E01  	    ld   a,(ix+$01)
47B7  32D891  	    ld   ($91D8),a
47BA  C9      	    ret
47BB  21BB48  	    ld   hl,$48BB
47BE  CDC947  	    call $47C9
47C1  C9      	    ret
47C2  21D348  	    ld   hl,$48D3
47C5  CDC947  	    call $47C9
47C8  C9      	    ret
47C9  5E      	    ld   e,(hl)
47CA  23      	    inc  hl
47CB  56      	    ld   d,(hl)
47CC  23      	    inc  hl
47CD  46      	    ld   b,(hl)
47CE  23      	    inc  hl
47CF  4E      	    ld   c,(hl)
47D0  23      	    inc  hl
47D1  EB      	    ex   de,hl
47D2  1A      	    ld   a,(de)
47D3  77      	    ld   (hl),a
47D4  CBD4    	    set  2,h
47D6  71      	    ld   (hl),c
47D7  CB94    	    res  2,h
47D9  13      	    inc  de
47DA  D5      	    push de
47DB  11E0FF  	    ld   de,$FFE0
47DE  19      	    add  hl,de
47DF  D1      	    pop  de
47E0  10F0    	    djnz $47D2
47E2  C9      	    ret
47E3  2693    	    ld   h,$93
47E5  24      	    inc  h
47E6  F5      	    push af
47E7  0693    	    ld   b,$93
47E9  D9      	    exx
47EA  F5      	    push af
47EB  E692    	    and  $92
47ED  D7      	    rst  $10
47EE  F5      	    push af
47EF  C692    	    add  a,$92
47F1  D5      	    push de
47F2  F5      	    push af
47F3  A6      	    and  (hl)
47F4  92      	    sub  d
47F5  D3F5    	    out  ($F5),a
47F7  86      	    add  a,(hl)
47F8  92      	    sub  d
47F9  D1      	    pop  de
47FA  F5      	    push af
47FB  66      	    ld   h,(hl)
47FC  92      	    sub  d
47FD  CF      	    rst  $08
47FE  F5      	    push af
47FF  46      	    ld   b,(hl)
4800  92      	    sub  d
4801  CDF526  	    call $26F5
4804  92      	    sub  d
4805  CBF5    	    set  6,l
4807  0692    	    ld   b,$92
4809  C9      	    ret
480A  F5      	    push af
480B  E691    	    and  $91
480D  C7      	    rst  $00
480E  F5      	    push af
480F  C691    	    add  a,$91
4811  C5      	    push bc
4812  F5      	    push af
4813  A6      	    and  (hl)
4814  91      	    sub  c
4815  C3F586  	    jp   $86F5
4818  91      	    sub  c
4819  C1      	    pop  bc
481A  F5      	    push af
481B  66      	    ld   h,(hl)
481C  91      	    sub  c
481D  BF      	    cp   a
481E  F5      	    push af
481F  46      	    ld   b,(hl)
4820  91      	    sub  c
4821  BD      	    cp   l
4822  F5      	    push af
4823  2691    	    ld   h,$91
4825  BB      	    cp   e
4826  F5      	    push af
4827  0691    	    ld   b,$91
4829  B9      	    cp   c
482A  F5      	    push af
482B  E690    	    and  $90
482D  B7      	    or   a
482E  F5      	    push af
482F  C690    	    add  a,$90
4831  B5      	    or   l
4832  F5      	    push af
4833  A6      	    and  (hl)
4834  90      	    sub  b
4835  B3      	    or   e
4836  F5      	    push af
4837  27      	    daa
4838  93      	    sub  e
4839  24      	    inc  h
483A  F5      	    push af
483B  07      	    rlca
483C  93      	    sub  e
483D  DAF5E7  	    jp   c,$E7F5
4840  92      	    sub  d
4841  D8      	    ret  c
4842  F5      	    push af
4843  C7      	    rst  $00
4844  92      	    sub  d
4845  D6F5    	    sub  $F5
4847  A7      	    and  a
4848  92      	    sub  d
4849  D4F587  	    call nc,$87F5
484C  92      	    sub  d
484D  D2F567  	    jp   nc,$67F5
4850  92      	    sub  d
4851  D0      	    ret  nc
4852  F5      	    push af
4853  47      	    ld   b,a
4854  92      	    sub  d
4855  CEF5    	    adc  a,$F5
4857  27      	    daa
4858  92      	    sub  d
4859  CCF507  	    call z,$07F5
485C  92      	    sub  d
485D  CAF5E7  	    jp   z,$E7F5
4860  91      	    sub  c
4861  C8      	    ret  z
4862  F5      	    push af
4863  C7      	    rst  $00
4864  91      	    sub  c
4865  C6F5    	    add  a,$F5
4867  A7      	    and  a
4868  91      	    sub  c
4869  C4F587  	    call nz,$87F5
486C  91      	    sub  c
486D  C2F567  	    jp   nz,$67F5
4870  91      	    sub  c
4871  C0      	    ret  nz
4872  F5      	    push af
4873  47      	    ld   b,a
4874  91      	    sub  c
4875  BE      	    cp   (hl)
4876  F5      	    push af
4877  27      	    daa
4878  91      	    sub  c
4879  BC      	    cp   h
487A  F5      	    push af
487B  07      	    rlca
487C  91      	    sub  c
487D  BA      	    cp   d
487E  F5      	    push af
487F  E7      	    rst  $20
4880  90      	    sub  b
4881  B8      	    cp   b
4882  F5      	    push af
4883  C7      	    rst  $00
4884  90      	    sub  b
4885  B6      	    or   (hl)
4886  F5      	    push af
4887  A7      	    and  a
4888  90      	    sub  b
4889  B4      	    or   h
488A  F5      	    push af
488B  3693    	    ld   (hl),$93
488D  14      	    inc  d
488E  86      	    add  a,(hl)
488F  24      	    inc  h
4890  24      	    inc  h
4891  24      	    inc  h
4892  24      	    inc  h
4893  12      	    ld   (de),a
4894  17      	    rla
4895  1C      	    inc  e
4896  0E1B    	    ld   c,$1B
4898  1D      	    dec  e
4899  24      	    inc  h
489A  24      	    inc  h
489B  0C      	    inc  c
489C  1812    	    jr   $48B0
489E  17      	    rla
489F  24      	    inc  h
48A0  24      	    inc  h
48A1  24      	    inc  h
48A2  24      	    inc  h
48A3  3893    	    jr   c,$4838
48A5  14      	    inc  d
48A6  82      	    add  a,d
48A7  24      	    inc  h
48A8  24      	    inc  h
48A9  24      	    inc  h
48AA  24      	    inc  h
48AB  24      	    inc  h
48AC  0C      	    inc  c
48AD  1812    	    jr   $48C1
48AF  17      	    rla
48B0  24      	    inc  h
48B1  24      	    inc  h
48B2  24      	    inc  h
48B3  24      	    inc  h
48B4  24      	    inc  h
48B5  19      	    add  hl,de
48B6  15      	    dec  d
48B7  0A      	    ld   a,(bc)
48B8  222424  	    ld   ($2424),hl
48BB  3A9314  	    ld   a,($1493)
48BE  80      	    add  a,b
48BF  24      	    inc  h
48C0  24      	    inc  h
48C1  24      	    inc  h
48C2  24      	    inc  h
48C3  24      	    inc  h
48C4  24      	    inc  h
48C5  24      	    inc  h
48C6  24      	    inc  h
48C7  24      	    inc  h
48C8  24      	    inc  h
48C9  24      	    inc  h
48CA  24      	    inc  h
48CB  24      	    inc  h
48CC  24      	    inc  h
48CD  24      	    inc  h
48CE  24      	    inc  h
48CF  24      	    inc  h
48D0  24      	    inc  h
48D1  24      	    inc  h
48D2  24      	    inc  h
48D3  7C      	    ld   a,h
48D4  93      	    sub  e
48D5  1886    	    jr   $485D
48D7  24      	    inc  h
48D8  24      	    inc  h
48D9  2824    	    jr   z,$48FF
48DB  010908  	    ld   bc,$0809
48DE  02      	    ld   (bc),a
48DF  24      	    inc  h
48E0  0C      	    inc  c
48E1  111E18  	    ld   de,$181E
48E4  24      	    inc  h
48E5  0C      	    inc  c
48E6  1831    	    jr   $4919
48E8  24      	    inc  h
48E9  15      	    dec  d
48EA  1D      	    dec  e
48EB  0D      	    dec  c
48EC  2B      	    dec  hl
48ED  24      	    inc  h
48EE  24      	    inc  h
48EF  F5      	    push af
48F0  3A00A8  	    ld   a,(hw_in_1)
48F3  E640    	    and  $40
48F5  C2FA48  	    jp   nz,$48FA
48F8  F1      	    pop  af
48F9  C9      	    ret
48FA  210091  	    ld   hl,$9100
48FD  111A49  	    ld   de,$491A
4900  060E    	    ld   b,$0E
4902  CD0E49  	    call $490E
4905  3A00B8  	    ld   a,(watchdog)
4908  00      	    nop
4909  00      	    nop
490A  00      	    nop
490B  C3FA48  	    jp   $48FA
490E  1A      	    ld   a,(de)
490F  77      	    ld   (hl),a
4910  13      	    inc  de
4911  C5      	    push bc
4912  012000  	    ld   bc,$0020
4915  09      	    add  hl,bc
4916  C1      	    pop  bc
4917  10F5    	    djnz $490E
4919  C9      	    ret
491A  24      	    inc  h
491B  0D      	    dec  c
491C  1D      	    dec  e
491D  15      	    dec  d
491E  24      	    inc  h
491F  31180C  	    ld   sp,$0C18
4922  24      	    inc  h
4923  181E    	    jr   $4943
4925  110C24  	    ld   de,$240C

4FFF          	    org $4fff
4FFF  00      	    nop
